EXPORTS
APPDEF_DEFAULT
APPDEF_DEFAULT_ALT
APPDEF_DIRECTORY
APPDEF_DIR_ALT
BKPfactor
BKPsolve
BandAddI
BandAllocMat
BandAllocPiv
BandBacksolve
BandCopy
BandFactor
BandFreeMat
BandFreePiv
BandPrint
BandScale
BandZero
CHfactor
CHsolve
CVBBDPrecAlloc
CVBBDPrecAllocB
CVBBDPrecFree
CVBBDPrecGetNumGfnEvals
CVBBDPrecGetWorkSpace
CVBBDPrecReInit
CVBBDPrecReInitB
CVBBDSpgmr
CVBBDSpgmrB
CVBPSpgmr
CVBPSpgmrB
CVBand
CVBandB
CVBandGetLastFlag
CVBandGetNumJacEvals
CVBandGetNumRhsEvals
CVBandGetWorkSpace
CVBandPrecAlloc
CVBandPrecAllocB
CVBandPrecFree
CVBandPrecGetNumRhsEvals
CVBandPrecGetWorkSpace
CVBandSetJacData
CVBandSetJacDataB
CVBandSetJacFn
CVBandSetJacFnB
CVDense
CVDenseB
CVDenseGetLastFlag
CVDenseGetNumJacEvals
CVDenseGetNumRhsEvals
CVDenseGetWorkSpace
CVDenseSetJacData
CVDenseSetJacDataB
CVDenseSetJacFn
CVDenseSetJacFnB
CVDiag
CVDiagB
CVDiagGetLastFlag
CVDiagGetNumRhsEvals
CVDiagGetWorkSpace
CVSensRhs1DQ
CVSensRhsDQ
CVSpgmr
CVSpgmrB
CVSpgmrGetLastFlag
CVSpgmrGetNumConvFails
CVSpgmrGetNumJtimesEvals
CVSpgmrGetNumLinIters
CVSpgmrGetNumPrecEvals
CVSpgmrGetNumPrecSolves
CVSpgmrGetNumRhsEvals
CVSpgmrGetWorkSpace
CVSpgmrSetDelt
CVSpgmrSetDeltB
CVSpgmrSetGSType
CVSpgmrSetGSTypeB
CVSpgmrSetJacData
CVSpgmrSetJacDataB
CVSpgmrSetJacTimesVecFn
CVSpgmrSetJacTimesVecFnB
CVSpgmrSetPrecData
CVSpgmrSetPrecDataB
CVSpgmrSetPrecSetupFn
CVSpgmrSetPrecSetupFnB
CVSpgmrSetPrecSolveFn
CVSpgmrSetPrecSolveFnB
CVSpgmrSetPrecType
CVSpgmrSetPrecTypeB
CVadjFree
CVadjGetCVodeBmem
CVadjGetCheckPointsList
CVadjGetStoredData
CVadjGetY
CVadjMalloc
CVode
CVodeB
CVodeCreate
CVodeCreateB
CVodeF
CVodeFree
CVodeGetActualInitStep
CVodeGetCurrentOrder
CVodeGetCurrentStep
CVodeGetCurrentTime
CVodeGetDky
CVodeGetErrWeights
CVodeGetEstLocalErrors
CVodeGetIntegratorStats
CVodeGetLastOrder
CVodeGetLastStep
CVodeGetNonlinSolvStats
CVodeGetNumErrTestFails
CVodeGetNumGEvals
CVodeGetNumLinSolvSetups
CVodeGetNumNonlinSolvConvFails
CVodeGetNumNonlinSolvIters
CVodeGetNumRhsEvals
CVodeGetNumRhsEvalsSens
CVodeGetNumSensErrTestFails
CVodeGetNumSensLinSolvSetups
CVodeGetNumSensNonlinSolvConvFails
CVodeGetNumSensNonlinSolvIters
CVodeGetNumSensRhsEvals
CVodeGetNumStabLimOrderReds
CVodeGetNumSteps
CVodeGetNumStgrSensNonlinSolvConvFails
CVodeGetNumStgrSensNonlinSolvIters
CVodeGetQuad
CVodeGetQuadB
CVodeGetQuadDky
CVodeGetQuadErrWeights
CVodeGetQuadNumErrTestFails
CVodeGetQuadNumRhsEvals
CVodeGetQuadStats
CVodeGetRootInfo
CVodeGetSens
CVodeGetSens1
CVodeGetSensDky
CVodeGetSensDky1
CVodeGetSensErrWeights
CVodeGetSensNonlinSolvStats
CVodeGetSensStats
CVodeGetStgrSensNonlinSolvStats
CVodeGetTolScaleFactor
CVodeGetWorkSpace
CVodeMalloc
CVodeMallocB
CVodeQuadFree
CVodeQuadMalloc
CVodeQuadMallocB
CVodeQuadReInit
CVodeQuadReInitB
CVodeReInit
CVodeReInitB
CVodeRootInit
CVodeSensFree
CVodeSensMalloc
CVodeSensReInit
CVodeSensToggle
CVodeSetErrFile
CVodeSetErrFileB
CVodeSetFdata
CVodeSetFdataB
CVodeSetGdata
CVodeSetInitStep
CVodeSetInitStepB
CVodeSetIterType
CVodeSetIterTypeB
CVodeSetMaxConvFails
CVodeSetMaxErrTestFails
CVodeSetMaxHnilWarns
CVodeSetMaxNonlinIters
CVodeSetMaxNumSteps
CVodeSetMaxNumStepsB
CVodeSetMaxOrd
CVodeSetMaxOrdB
CVodeSetMaxStep
CVodeSetMaxStepB
CVodeSetMinStep
CVodeSetMinStepB
CVodeSetNonlinConvCoef
CVodeSetQuadErrCon
CVodeSetQuadErrConB
CVodeSetQuadFdata
CVodeSetQuadFdataB
CVodeSetQuadTolerances
CVodeSetQuadTolerancesB
CVodeSetSensErrCon
CVodeSetSensFdata
CVodeSetSensMaxNonlinIters
CVodeSetSensPbar
CVodeSetSensRho
CVodeSetSensRhs1Fn
CVodeSetSensRhsFn
CVodeSetSensTolerances
CVodeSetStabLimDet
CVodeSetStabLimDetB
CVodeSetStopTime
CVodeSetTolerances
ClassicalGS
DenseAddI
DenseAllocMat
DenseAllocPiv
DenseBacksolve
DenseCopy
DenseFactor
DenseFreeMat
DenseFreePiv
DensePrint
DenseScale
DenseZero
Dsolve
Hfactor
IDABBDPrecAlloc
IDABBDPrecFree
IDABBDPrecGetNumGfnEvals
IDABBDPrecGetWorkSpace
IDABBDPrecReInit
IDABBDPrecSetup
IDABBDPrecSolve
IDABBDSpgmr
IDABand
IDABandGetLastFlag
IDABandGetNumJacEvals
IDABandGetNumResEvals
IDABandGetWorkSpace
IDABandSetJacData
IDABandSetJacFn
IDACalcIC
IDACreate
IDADense
IDADenseGetLastFlag
IDADenseGetNumJacEvals
IDADenseGetNumResEvals
IDADenseGetWorkSpace
IDADenseSetJacData
IDADenseSetJacFn
IDAEwtSet
IDAFree
IDAGetActualInitStep
IDAGetCurrentOrder
IDAGetCurrentStep
IDAGetCurrentTime
IDAGetErrWeights
IDAGetIntegratorStats
IDAGetLastOrder
IDAGetLastStep
IDAGetNonlinSolvStats
IDAGetNumBacktrackOps
IDAGetNumErrTestFails
IDAGetNumLinSolvSetups
IDAGetNumNonlinSolvConvFails
IDAGetNumNonlinSolvIters
IDAGetNumResEvals
IDAGetNumSteps
IDAGetSolution
IDAGetTolScaleFactor
IDAGetWorkSpace
IDAInitialSetup
IDAMalloc
IDAReInit
IDASetConstraints
IDASetErrFile
IDASetId
IDASetInitStep
IDASetLineSearchOffIC
IDASetMaxConvFails
IDASetMaxErrTestFails
IDASetMaxNonlinIters
IDASetMaxNumItersIC
IDASetMaxNumJacsIC
IDASetMaxNumSteps
IDASetMaxNumStepsIC
IDASetMaxOrd
IDASetMaxStep
IDASetNonlinConvCoef
IDASetNonlinConvCoefIC
IDASetRdata
IDASetStepToleranceIC
IDASetStopTime
IDASetSuppressAlg
IDASetTolerances
IDASolve
IDASpgmr
IDASpgmrGetLastFlag
IDASpgmrGetNumConvFails
IDASpgmrGetNumJtimesEvals
IDASpgmrGetNumLinIters
IDASpgmrGetNumPrecEvals
IDASpgmrGetNumPrecSolves
IDASpgmrGetNumResEvals
IDASpgmrGetWorkSpace
IDASpgmrSetEpsLin
IDASpgmrSetGSType
IDASpgmrSetIncrementFactor
IDASpgmrSetJacData
IDASpgmrSetJacTimesVecFn
IDASpgmrSetMaxRestarts
IDASpgmrSetPrecData
IDASpgmrSetPrecSetupFn
IDASpgmrSetPrecSolveFn
IDAWrmsNorm
IVDialog_setAcceptInput
LDLfactor
LDLsolve
LDLupdate
LOCATION_KEY
LTsolve
LUTsolve
LUcondest
LUfactor
LUsolve
Lsolve
MCHfactor
Maxpy
Mcopy
Mdot
Mmm
Mmmtr
Mmtrm
Mmtrmtr
Mmv
Mnorm1
Mnorm2
Mnorminf
ModifiedGS
Mscale
Mswap
Mupdate
Mvm
N_VAbs
N_VAbs_Parallel
N_VAbs_Serial
N_VAddConst
N_VAddConst_Parallel
N_VAddConst_Serial
N_VClone
N_VCloneEmpty_Parallel
N_VCloneEmpty_Serial
N_VCloneVectorArray
N_VClone_Parallel
N_VClone_Serial
N_VCompare
N_VCompare_Parallel
N_VCompare_Serial
N_VConst
N_VConst_Parallel
N_VConst_Serial
N_VConstrMask
N_VConstrMask_Parallel
N_VConstrMask_Serial
N_VDestroy
N_VDestroyVectorArray
N_VDestroyVectorArray_Parallel
N_VDestroyVectorArray_Serial
N_VDestroy_Parallel
N_VDestroy_Serial
N_VDiv
N_VDiv_Parallel
N_VDiv_Serial
N_VDotProd
N_VDotProd_Parallel
N_VDotProd_Serial
N_VGetArrayPointer
N_VGetArrayPointer_Parallel
N_VGetArrayPointer_Serial
N_VInv
N_VInvTest
N_VInvTest_Parallel
N_VInvTest_Serial
N_VInv_Parallel
N_VInv_Serial
N_VL1Norm
N_VL1Norm_Parallel
N_VL1Norm_Serial
N_VLinearSum
N_VLinearSum_Parallel
N_VLinearSum_Serial
N_VMake_Parallel
N_VMake_Serial
N_VMaxNorm
N_VMaxNorm_Parallel
N_VMaxNorm_Serial
N_VMin
N_VMinQuotient
N_VMinQuotient_Parallel
N_VMinQuotient_Serial
N_VMin_Parallel
N_VMin_Serial
N_VNewEmpty_Parallel
N_VNewEmpty_Serial
N_VNewVectorArrayEmpty_Parallel
N_VNewVectorArrayEmpty_Serial
N_VNewVectorArray_Parallel
N_VNewVectorArray_Serial
N_VNew_NrnParallelLD
N_VNew_Parallel
N_VNew_Serial
N_VOneMask_Serial
N_VPrint_Parallel
N_VPrint_Serial
N_VProd
N_VProd_Parallel
N_VProd_Serial
N_VScale
N_VScale_Parallel
N_VScale_Serial
N_VSetArrayPointer
N_VSetArrayPointer_Parallel
N_VSetArrayPointer_Serial
N_VSpace
N_VSpace_Parallel
N_VSpace_Serial
N_VWL2Norm
N_VWL2Norm_Parallel
N_VWL2Norm_Serial
N_VWrmsNorm
N_VWrmsNormMask
N_VWrmsNormMask_Parallel
N_VWrmsNormMask_Serial
N_VWrmsNorm_Parallel
N_VWrmsNorm_Serial
POPUP_CLASSNAME
PROP_PTR
QRCPfactor
QRCPsolve
QRTsolve
QRcondest
QRfact
QRfactor
QRsol
QRsolve
QRupdate
RAbs
RCS_hoc_date
RCS_hoc_version
RPower2
RPowerI
RPowerR
RSqrt
SECTION_NAME
SpgmrFree
SpgmrMalloc
SpgmrSolve
TOPLEVEL_CLASSNAME
UTsolve
Usolve
WINDOW_CLASSNAME
_Qsolve
_Z10E_IntFire4PdP5DatumS1_P9NrnThread
_Z10I_IntFire2PdP5DatumS1_P9NrnThread
_Z10I_IntFire4PdP5DatumS1_P9NrnThread
_Z10KSChan_regv
_Z10M_IntFire1PdP5DatumS1_P9NrnThread
_Z10M_IntFire2PdP5DatumS1_P9NrnThread
_Z10M_IntFire4PdP5DatumS1_P9NrnThread
_Z10Matrix_regv
_Z10NetCon_regv
_Z10OcDeck_regv
_Z10OcFile_regv
_Z10OcList_regv
_Z10Random_regv
_Z10TQueue_regv
_Z10Vector_regv
_Z10batch_savev
_Z10bbs_handlev
_Z10chk_accessv
_Z10disconnectv
_Z10fit_praxisv
_Z10freematrixPPd
_Z10freevectorPd
_Z10gr_getlinePv
_Z10hoc_Fprintv
_Z10hoc_Getstrv
_Z10hoc_Numargv
_Z10hoc_PRintfv
_Z10hoc_Sprintv
_Z10hoc_Strcmpv
_Z10hoc_Systemv
_Z10hoc_arayptP6Symboli
_Z10hoc_argrefv
_Z10hoc_assignv
_Z10hoc_assstrv
_Z10hoc_codeinP4Inst
_Z10hoc_cyclicv
_Z10hoc_defineP6Symbol
_Z10hoc_eqinitv
_Z10hoc_getargi
_Z10hoc_getcwdv
_Z10hoc_getsymPKc
_Z10hoc_ifcodev
_Z10hoc_ivmenuPKcb
_Z10hoc_l_moveP8hoc_ItemS0_S0_
_Z10hoc_l_nextP8hoc_Item
_Z10hoc_l_prevP8hoc_Item
_Z10hoc_lookupPKc
_Z10hoc_malchkv
_Z10hoc_mcran4v
_Z10hoc_negatev
_Z10hoc_newobjv
_Z10hoc_objpopv
_Z10hoc_onintri
_Z10hoc_opasgnidd
_Z10hoc_prexprv
_Z10hoc_pushpxPd
_Z10hoc_reg_baiPFvP4NodePdP5DatumS3_P9NrnThreadEi
_Z10hoc_spinitv
_Z10hoc_sscanfv
_Z10hoc_stdoutv
_Z10hoc_stopswv
_Z10hoc_strpopv
_Z10hoc_xlabelv
_Z10hoc_xopen1PKcS0_
_Z10hoc_xpanelv
_Z10hoc_xvaluev
_Z10ion_chargev
_Z10isDirExistRKNSt7__cxx1112basic_stringIcSt11char_traitsIcESaIcEEE
_Z10ismembranev
_Z10ivoc_stylev
_Z10makematrixii
_Z10makevectori
_Z10matrix_argi
_Z10mcell_ran4PjPdjd
_Z10node_allocP7Sections
_Z10node_exactP7Sectiond
_Z10node_indexP7Sectiond
_Z10nrnRan4dblPjj
_Z10nrnRan4intPjj
_Z10nrn_convlvPdmS_miS_
_Z10nrn_correlPdS_mS_
_Z10nrn_existsP6SymbolP4Node
_Z10nrn_is_ioni
_Z10nrn_nernstddd
_Z10nrn_popsecv
_Z10nrn_secargi
_Z10nrn_spctrmPdS_ii
_Z10nrn_timeusv
_Z10nrndae_lhsv
_Z10nrndae_rhsv
_Z10nrnpy_passv
_Z10nrnsecmenuv
_Z10ob2pntprocP6Object
_Z10ok_to_readPKcP8ivWindow
_Z10ok_to_readRK8osStringP8ivWindow
_Z10pr_profilev
_Z10print_stimv
_Z10prop_allocPP4PropiP4Node
_Z10pt3dchangev
_Z10pt3dinsertv
_Z10pt3dremovev
_Z10rangepointv
_Z10revsigmoiddddd
_Z10sec_accessv
_Z10set_intsetv
_Z10spMultiplyPcPdS0_St8optionalIS0_ES2_
_Z10spRoundoffPcd
_Z10spar_bksubv
_Z10spar_prmatv
_Z10sptq_spdeqI6TQItemEPT_PS2_
_Z10sptq_splayI6TQItemEvPT_P6SPTREEIS1_E
_Z10squarewavePiPdddd
_Z10v_as_numpyPv
_Z10vector_argi
_Z10vector_newiP6Object
_Z10vector_vecP8IvocVect
_Z10vector_vecPv
_Z11GUIMath_regv
_Z11GrGlyph_regv
_Z11OcTimer_regv
_Z11PPShape_regv
_Z11add_profilei
_Z11add_sectionv
_Z11attr_praxisv
_Z11finitializev
_Z11for_segmentv
_Z11frame_debugv
_Z11gr_addglyphPv
_Z11hoc_Argtypev
_Z11hoc_Ecallocyy
_Z11hoc_Emallocy
_Z11hoc_araystrP6SymboliP10Objectdata
_Z11hoc_argtypei
_Z11hoc_codeptrPv
_Z11hoc_codesymP6Symbol
_Z11hoc_debugzzP4Inst
_Z11hoc_eqn_lhsv
_Z11hoc_eqn_rhsv
_Z11hoc_execstrPKc
_Z11hoc_executeP4Inst
_Z11hoc_forcodev
_Z11hoc_funcretv
_Z11hoc_fw_scanP6_iobuf
_Z11hoc_gargstri
_Z11hoc_installPKcidPP7Symlist
_Z11hoc_integerd
_Z11hoc_ivlabelPKc
_Z11hoc_ivpanelPKcb
_Z11hoc_ivvaluePKcS0_bP6Object
_Z11hoc_newlinev
_Z11hoc_newobj1P6Symboli
_Z11hoc_obj_geti
_Z11hoc_obj_refP6Object
_Z11hoc_obj_runPKcP6Object
_Z11hoc_obj_setiP6Object
_Z11hoc_pgetargi
_Z11hoc_plprintPKc
_Z11hoc_pointerv
_Z11hoc_procretv
_Z11hoc_prstackv
_Z11hoc_pushobjPP6Object
_Z11hoc_pushstrPPc
_Z11hoc_regraphv
_Z11hoc_secnamev
_Z11hoc_settextv
_Z11hoc_sprint1PPci
_Z11hoc_startswv
_Z11hoc_strgetsPci
_Z11hoc_symbolsv
_Z11hoc_varpushv
_Z11hoc_varreadv
_Z11hoc_warningPKcS0_
_Z11hoc_xbuttonv
_Z11hoc_xpvaluev
_Z11hoc_xsliderv
_Z11hoc_yyparsev
_Z11hocstr_copyP6HocStrPKc
_Z11icur_VClampv
_Z11is_obj_typeP6ObjectPKc
_Z11ivoc_gr_gifPv
_Z11key_to_hashm
_Z11mcell_iran4Pj
_Z11mcell_ran4aPj
_Z11mech_accessv
_Z11model_readyv
_Z11morph_allocP4Prop
_Z11mwAssertionPKcS0_j
_Z11nemo2neuronv
_Z11neuron2nemov
_Z11nrn_area_riP7Section
_Z11nrn_feroundi
_Z11nrn_fihexeci
_Z11nrn_gid2obji
_Z11nrn_gid2outv
_Z11nrn_gsl2nrcPdS_m
_Z11nrn_hoc2funPv
_Z11nrn_nrc2gslPdS_m
_Z11nrn_promoteP4Propii
_Z11nrn_pushsecP7Section
_Z11nrn_rhs_extP9NrnThread
_Z11nrn_sec_popv
_Z11nrn_sec_refPP7SectionS0_
_Z11nrn_timeouti
_Z11nrn_vartypeP6Symbol
_Z11nrn_versioni
_Z11nrn_vext_pdP6SymboliP4Node
_Z11nrncore_runPKc
_Z11nrndae_initv
_Z11nrnmechmenuv
_Z11nrnmpi_loadB5cxx11i
_Z11nrnpy_dpropP6SymboliP7SectionsPi
_Z11ok_to_writePKcP8ivWindow
_Z11ok_to_writeRK8osStringP8ivWindow
_Z11parent_nodev
_Z11pop_sectionv
_Z11praxis_pvali
_Z11praxis_stopi
_Z11print_allocP8ivCanvasPcRK12ivAllocation
_Z11print_clampv
_Z11pval_praxisv
_Z11range_constv
_Z11recalc_diamv
_Z11revhyperbolddd
_Z11revsawtoothPiPdddd
_Z11scop_randomv
_Z11section_refP7Section
_Z11sectionnamev
_Z11spConditionPcdPi
_Z11spFileStatsPcS_S_
_Z11spPartitionPci
_Z11spar_getelmP3elmjj
_Z11spar_matsolv
_Z11spar_remelmP3elm
_Z11spar_subrowP3elmS0_
_Z11spcLinkRowsP11MatrixFrame
_Z11stop_praxisv
_Z11str_chooserPKcPcP8ivWindowff
_Z11v_to_pythonPv
_Z11vector_new0v
_Z11vector_new1i
_Z11vector_new2P8IvocVect
_Z11vector_pobjP8IvocVect
_Z11vector_pobjPv
_Z11zero_matrixPPdii
_Z12HandleOutputPc
_Z12_modl_set_dtd
_Z12bbss_restorePviiPci
_Z12call_simplexPdiP8IvocVectS1_Pci
_Z12cmplx_spNormPc
_Z12cxx_demangleB5cxx11PKc
_Z12cxx_demanglePKcPPcPy
_Z12define_shapev
_Z12ext_con_coefv
_Z12for_segment1v
_Z12frecord_initv
_Z12getSpineAreav
_Z12get_filenameRKNSt7__cxx1112basic_stringIcSt11char_traitsIcESaIcEEES4_
_Z12gr_line_infoPv
_Z12has_membranePcP7Section
_Z12hoc_Continuev
_Z12hoc_EreallocPvy
_Z12hoc_Setcolorv
_Z12hoc_acterrorPKcS0_
_Z12hoc_argindexv
_Z12hoc_copyfilePKcS0_
_Z12hoc_defnonlyPKc
_Z12hoc_dep_makev
_Z12hoc_eqn_initv
_Z12hoc_eqn_namev
_Z12hoc_exec_cmdv
_Z12hoc_execute1v
_Z12hoc_fpecatchi
_Z12hoc_free_valPd
_Z12hoc_freearayP6Symbol
_Z12hoc_get_linev
_Z12hoc_initcodev
_Z12hoc_iteratorv
_Z12hoc_ivbuttonPKcS0_P6Object
_Z12hoc_ivpvaluePKcPdbP15HocSymExtension
_Z12hoc_ivsliderPdfffiPKcbbP6ObjectS3_
_Z12hoc_l_deleteP8hoc_Item
_Z12hoc_mallinfov
_Z12hoc_name2objPKci
_Z12hoc_name2symPKc
_Z12hoc_ob_checki
_Z12hoc_pgargstri
_Z12hoc_pop_ndimv
_Z12hoc_pushzerov
_Z12hoc_retpushxd
_Z12hoc_run_exprP6Symbol
_Z12hoc_run_stmtP6Symbol
_Z12hoc_shortforv
_Z12hoc_win_execv
_Z12invl_NetStimPdP5DatumS1_P9NrnThreadd
_Z12ion_registerv
_Z12isaac64_initP13isaac64_statej
_Z12ivoc_cleanupv
_Z12ivoc_gr_linePv
_Z12ivoc_gr_markPv
_Z12ivoc_gr_sizePv
_Z12mech_insert1P7Sectioni
_Z12new_sectionsP6ObjectP6SymbolPP8hoc_Itemi
_Z12notify_freedPv
_Z12nrn_cacheveci
_Z12nrn_complainPd
_Z12nrn_diameterP4Node
_Z12nrn_gui_execPFvPvES_
_Z12nrn_hoc_lockv
_Z12nrn_initcodev
_Z12nrn_is_cablev
_Z12nrn_mallinfoi
_Z12nrn_net_moveP5DatumP13Point_processd
_Z12nrn_net_sendP5DatumPdP13Point_processdd
_Z12nrn_net_sendPvPdP13Point_processdd
_Z12nrn_pointingPd
_Z12nrn_sec2cellP7Section
_Z12nrn_secstacki
_Z12nrndae_allocv
_Z12nrndae_dkmapPPdS0_
_Z12nrndae_dkresPdS_S_
_Z12nrnisaac_newv
_Z12nrnmpi_stubsv
_Z12nrnpointmenuv
_Z12ob2pntproc_0P6Object
_Z12oc_save_codePP4InstS1_RyPPN3nrn2oc5frameEPiS8_S1_S7_S2_PP7SymlistS1_S8_
_Z12praxis_paxisi
_Z12push_sectionv
_Z12rangevarevalv
_Z12section_menudiP12MechSelector
_Z12setSpineAreav
_Z12sigsegvcatchi
_Z12spFileMatrixPcS_S_iii
_Z12spFileVectorPcS_PdS0_
_Z12spGetElementPcii
_Z12spSetComplexPc
_Z12spStripFillsPc
_Z12spcGetFillinP11MatrixFrame
_Z12stim_preparev
_Z12this_sectionv
_Z13Impedance_regv
_Z13OcPointer_regv
_Z13PWManager_regv
_Z13PlotShape_regv
_Z13SaveState_regv
_Z13_cvode_abstolPP6SymbolPdi
_Z13activstim_rhsv
_Z13clamp_preparev
_Z13cmplx_spClearPc
_Z13cmplx_spErrorPc
_Z13cmplx_spPrintPciii
_Z13cmplx_spScalePcPdS0_
_Z13cmplx_spSolvePcPdS0_St8optionalIS0_ES2_
_Z13erand_NetStimPdP5DatumS1_P9NrnThread
_Z13geometry3d_viPdS_ddS_
_Z13has_loc_pointPv
_Z13hoc_Execerrorv
_Z13hoc_Graphmodev
_Z13hoc_ParseExeci
_Z13hoc_Saveauditv
_Z13hoc_argassignv
_Z13hoc_argrefargv
_Z13hoc_assignsymP4Psymd
_Z13hoc_call_funcP6Symboli
_Z13hoc_cmp_otypev
_Z13hoc_constpushv
_Z13hoc_execerrorPKcS0_
_Z13hoc_fake_callP6Symbol
_Z13hoc_free_listPP7Symlist
_Z13hoc_getsymvalP4Psym
_Z13hoc_ifseclistv
_Z13hoc_ivvarmenuPKcS0_bP6Object
_Z13hoc_l_newlistv
_Z13hoc_last_initv
_Z13hoc_load_filev
_Z13hoc_load_funcv
_Z13hoc_load_procv
_Z13hoc_moreinputv
_Z13hoc_notify_ivv
_Z13hoc_obj_unrefP6Object
_Z13hoc_object_idv
_Z13hoc_objectargv
_Z13hoc_objectvarv
_Z13hoc_objgetargi
_Z13hoc_pop_deferv
_Z13hoc_pop_framev
_Z13hoc_push_ndimi
_Z13hoc_saveauditv
_Z13hoc_set_colori
_Z13hoc_stacktypev
_Z13hoc_stringargv
_Z13hoc_usemcran4v
_Z13hoc_var_extraPKc
_Z13hoc_xcheckboxv
_Z13hoc_xopen_runP6SymbolPKc
_Z13hoc_xvarlabelv
_Z13hocstr_createy
_Z13hocstr_deleteP6HocStr
_Z13hocstr_resizeP6HocStry
_Z13is_vector_argi
_Z13ivoc_gr_erasePv
_Z13ivoc_gr_labelPv
_Z13mech_uninsertv
_Z13mswin_setclipP8ivCanvasiiii
_Z13node_destructPP4Nodei
_Z13nrn_cap_jacobP9NrnThreadP9Memb_list
_Z13nrn_fake_fireidi
_Z13nrn_isecstackv
_Z13nrn_mechanismiP4Node
_Z13nrn_mlh_gsortPdPiiPFiddE
_Z13nrn_modeltypev
_Z13nrn_net_eventP13Point_processd
_Z13nrn_play_initv
_Z13nrn_pool_freePvS_
_Z13nrn_pt3dclearP7Sectioni
_Z13nrn_setup_extP9NrnThread
_Z13nrn_update_2dP9NrnThread
_Z13nrn_use_daspki
_Z13nrncore_writev
_Z13nrndae_updatev
_Z13nrngsl_realftPdmi
_Z13nrnisaac_initPvm
_Z13nrniv_sh_pushPv
_Z13nrnpython_regv
_Z13ob_sec_accessv
_Z13print_symlistPKcP7Symlist
_Z13register_mechPPKcPFvP4PropEPFvP9NrnThreadP9Memb_listiESB_SB_SB_ii
_Z13run_til_stdinv
_Z13secaccessnamev
_Z13section_orderv
_Z13section_ownerv
_Z13section_unrefP7Section
_Z13setneuronhomePKc
_Z13spDeterminantPcPiPdSt8optionalIS1_E
_Z13spFillinCountPc
_Z13spcGetElementP11MatrixFrame
_Z13sptq_spdeleteI6TQItemEvPT_P6SPTREEIS1_E
_Z13start_profilei
_Z13v_from_pythonPv
_Z13vector_appendP8IvocVectd
_Z13vector_arg_pxiPPd
_Z13vector_deleteP8IvocVect
_Z13vector_resizeP8IvocVecti
_Z13vector_resizePvi
_Z13write_globalsPKc
_Z14SectionRef_regv
_Z14SymChooser_regv
_Z14TextEditor_regv
_Z14XParseGeometryPKcPiS1_PjS2_
_Z14activclamp_lhsv
_Z14activclamp_rhsv
_Z14bbss_save_donePv
_Z14boolean_dialogPKcS0_S0_P8ivWindowff
_Z14check_obj_typeP6ObjectPKc
_Z14cmplx_spCreateiiPi
_Z14cmplx_spFactorPc
_Z14connectpointerv
_Z14connectsectionv
_Z14count_distinctPdi
_Z14cvode_fadvanced
_Z14cxx_char_allocy
_Z14delete_sectionv
_Z14deriv_IntFire4PdP5DatumS1_P9NrnThreadd
_Z14dpy_setmapmodeP5HDC__
_Z14expand_env_varPKc
_Z14forall_sectionv
_Z14get_write_pathB5cxx11v
_Z14hoc_allobjectsv
_Z14hoc_arayinstalv
_Z14hoc_argrefasgnv
_Z14hoc_assign_strPPcPKc
_Z14hoc_autoobjectv
_Z14hoc_checkpointv
_Z14hoc_close_plotv
_Z14hoc_final_exitv
_Z14hoc_func_tablePviPd
_Z14hoc_get_symbolPKc
_Z14hoc_init_spacev
_Z14hoc_insertcodeP4InstS0_PFvvE
_Z14hoc_is_str_argi
_Z14hoc_ivpanelmapi
_Z14hoc_ivvaluerunPKcS0_S0_bbbP6ObjectS2_
_Z14hoc_ivvarlabelPPcP6Object
_Z14hoc_known_typev
_Z14hoc_l_delitemsP8hoc_ItemS0_
_Z14hoc_l_freelistPP8hoc_Item
_Z14hoc_l_movelistP8hoc_ItemS0_S0_
_Z14hoc_l_strallocPKcPc
_Z14hoc_main1_initPKcPS0_
_Z14hoc_mcran4initv
_Z14hoc_neuronhomev
_Z14hoc_new_objectP6SymbolPv
_Z14hoc_new_opointi
_Z14hoc_newobj_argv
_Z14hoc_newobj_retv
_Z14hoc_nrnversionv
_Z14hoc_ob_pointerv
_Z14hoc_obj_notifyP6Object
_Z14hoc_object_popv
_Z14hoc_objvardeclv
_Z14hoc_parse_exprPKcPP7Symlist
_Z14hoc_parse_stmtPKcPP7Symlist
_Z14hoc_pop_objectv
_Z14hoc_push_frameP6Symboli
_Z14hoc_show_winiov
_Z14hoc_spec_tablePPvi
_Z14hoc_stack_typev
_Z14hoc_sym_domainP6Symbol
_Z14hoc_tobj_unrefPP6Object
_Z14hoc_valid_stmtPKcP6Object
_Z14hoc_winio_showi
_Z14iv_rescale_mapv
_Z14ivoc_erase_allPv
_Z14ivoc_list_itemP6Objecti
_Z14ivoc_list_lookP6ObjectS0_Pci
_Z14ivoc_view_infoPv
_Z14ivoc_view_sizePv
_Z14keep_nseg_parmv
_Z14make_mechanismv
_Z14mech_uninsert1P7SectionP6Symbol
_Z14mswin_load_dllPKc
_Z14node_constructi
_Z14nrn_clear_markv
_Z14nrn_disconnectP7Section
_Z14nrn_err_dialogPKc
_Z14nrn_fixed_stepv
_Z14nrn_gid2presyni
_Z14nrn_gid_existsi
_Z14nrn_hoc_unlockv
_Z14nrn_ion_chargeP6Symbol
_Z14nrn_matrix_dimPvi
_Z14nrn_netcon_symv
_Z14nrn_pool_allocPv
_Z14nrn_poolshrinki
_Z14nrn_pt3dinsertP7Sectionidddd
_Z14nrn_pt3dremoveP7Sectioni
_Z14nrn_pt3dstyle0P7Section
_Z14nrn_pt3dstyle1P7Sectionddd
_Z14nrn_random_argi
_Z14nrn_rangeconstP7SectionP6SymbolPdi
_Z14nrn_recalc_ptrPd
_Z14nrn_trueparentP7Section
_Z14nrn_value_markP7Section
_Z14nrn_vecsim_addPvb
_Z14nrn_wrote_concP6SymbolPdi
_Z14nrncore_psolvedi
_Z14nrncvode_set_td
_Z14nrniv_sh_colorPv
_Z14nrnran123_iranjjj
_Z14oc_post_dialogP8ivDialogff
_Z14parent_sectionv
_Z14pwmimpl_redrawP8ivWindow
_Z14sec_access_popv
_Z14section_existsv
_Z14section_lengthP7Section
_Z14segment_limitsPd
_Z14setup_topologyv
_Z14sgid_alltoallvPiS_S_S_S_S_
_Z14spElementCountPc
_Z14spMNA_PreorderPc
_Z14spcColExchangeP11MatrixFrameii
_Z14spcRowExchangeP11MatrixFrameii
_Z14topol_distanceP7SectionP4NodeS0_S2_PS0_PS2_
_Z15BBSaveState_regv
_Z15OcPtrVector_regv
_Z15SectionList_regv
_Z15_nrn_free_watchP5Datumii
_Z15_nrn_thread_regiiPFvP5DatumE
_Z15add_nrn_artcellii
_Z15cable_prop_evalP6Symbol
_Z15cmplx_spDestroyPc
_Z15cmplx_spGetOnesPciiiP10spTemplate
_Z15cmplx_spGetQuadPciiiiP10spTemplate
_Z15cmplx_spGetSizePci
_Z15cmplx_spSetRealPc
_Z15connection_coefv
_Z15continue_dialogPKcP8ivWindowff
_Z15create_dir_pathRKNSt7__cxx1112basic_stringIcSt11char_traitsIcESaIcEEE
_Z15fgets_unlimitedP6HocStrP6_iobuf
_Z15hoc_constobjectv
_Z15hoc_endtemplateP6Symbol
_Z15hoc_errno_checkv
_Z15hoc_evalpointerv
_Z15hoc_execerr_extPKcz
_Z15hoc_free_objectP6Object
_Z15hoc_free_stringPc
_Z15hoc_init_accessv
_Z15hoc_install_varPKcPd
_Z15hoc_ivpvaluerunPKcPdS0_bbP15HocSymExtension
_Z15hoc_l_insertobjP8hoc_ItemP6Object
_Z15hoc_l_insertsecP8hoc_ItemP7Section
_Z15hoc_l_insertstrP8hoc_ItemPKc
_Z15hoc_l_insertsymP8hoc_ItemP6Symbol
_Z15hoc_l_replacstrP8hoc_ItemPKc
_Z15hoc_link_symbolP6SymbolP7Symlist
_Z15hoc_nrnmpi_initv
_Z15hoc_object_asgnv
_Z15hoc_object_evalv
_Z15hoc_object_nameP6Object
_Z15hoc_object_pushv
_Z15hoc_push_objectP6Object
_Z15hoc_push_stringv
_Z15hoc_pwman_placev
_Z15hoc_temp_objptrP6Object
_Z15hoc_temp_objvarP6SymbolPv
_Z15hoc_total_arrayP6Symbol
_Z15hoc_unix_mac_pcv
_Z15hoc_unref_deferv
_Z15hoc_val_pointerPKc
_Z15hoc_xfixedvaluev
_Z15init_net_eventsv
_Z15iv_bind_enqueuePFvPvES_
_Z15iv_user_keydownl
_Z15ivoc_final_exitv
_Z15ivoc_free_aliasP6Object
_Z15ivoc_list_countP6Object
_Z15ivoc_vector_ptrP6Objecti
_Z15mcell_ran4_initj
_Z15nrn_change_nsegP7Sectioni
_Z15nrn_chk_sectionP6Symbol
_Z15nrn_diam_changeP7Section
_Z15nrn_errno_checki
_Z15nrn_finitializeid
_Z15nrn_gidout_iterPFviP6ObjectE
_Z15nrn_nernst_coefi
_Z15nrn_netcon_infoP6NetConPPdPP13Point_processS2_S2_
_Z15nrn_outputeventhd
_Z15nrn_parent_infoP7Section
_Z15nrn_parent_nodeP4Node
_Z15nrn_pool_createli
_Z15nrn_pool_deletePv
_Z15nrn_prcellstateiPKc
_Z15nrn_pt3dchange1P7Sectionid
_Z15nrn_pt3dchange2P7Sectionidddd
_Z15nrn_random_pickP4Rand
_Z15nrn_random_pickPv
_Z15nrn_recalc_ptrsPFPdS_E
_Z15nrn_record_initv
_Z15nrn_set_timeouti
_Z15nrn_watch_clearv
_Z15nrn_writes_concii
_Z15nrnallpointmenuv
_Z15nrndae_registerP6NrnDAE
_Z15nrnhoc_topologyv
_Z15nrnisaac_deletePv
_Z15nrniv_bind_callv
_Z15nrniv_len_scalePv
_Z15nrniv_sh_rotatePv
_Z15nrnran123_ipickP15nrnran123_State
_Z15nrnran123_iran3jjjj
_Z15oc_restore_codePP4InstS1_RyPPN3nrn2oc5frameEPiS8_S1_S7_S2_PP7SymlistS1_S8_
_Z15oc_save_cabcodePiS_
_Z15oc_save_hoc_oopPP6ObjectPP10ObjectdataPiPP7Symlist
_Z15parse_bt_symbolPcPPvS_S_
_Z15search_IntFire4PdP5DatumS1_P9NrnThread
_Z15sec_access_pushv
_Z15spGetAdmittancePciiP10spTemplate
_Z15spWhereSingularPcPiS0_
_Z15sym_extra_allocP6Symbol
_Z15synapse_preparev
_Z15v_setup_vectorsv
_Z15vector_capacityP8IvocVect
_Z15vector_capacityPv
_Z15winio_key_pressv
_Z15write_nrnthreadPKcR9NrnThreadR9CellGroup
_Z16N_VAbs_NrnThreadP17_generic_N_VectorS0_
_Z16N_VDiv_NrnThreadP17_generic_N_VectorS0_S0_
_Z16N_VInv_NrnThreadP17_generic_N_VectorS0_
_Z16N_VMin_NrnThreadP17_generic_N_Vector
_Z16N_VNew_NrnThreadliPl
_Z16RangeVarPlot_regv
_Z16_nrn_netcon_argsPvPPPd
_Z16_nrn_setdata_regiPFvP4PropE
_Z16activsynapse_lhsv
_Z16activsynapse_rhsv
_Z16artcell_net_moveP5DatumP13Point_processd
_Z16artcell_net_sendP5DatumPdP13Point_processdd
_Z16artcell_net_sendPvPdP13Point_processdd
_Z16backward_wrapperv
_Z16bbss_save_globalPvPci
_Z16can_change_morphP7Section
_Z16cmplx_spMultiplyPcPdS0_St8optionalIS0_ES2_
_Z16cmplx_spRoundoffPcd
_Z16extcell_2d_allocP7Section
_Z16gui_thread_xmovePv
_Z16handle_old_focusv
_Z16hoc_Symbol_unitsv
_Z16hoc_back2forwardPc
_Z16hoc_call_ob_procP6ObjectP6Symboli
_Z16hoc_call_objfuncP6SymboliP6Object
_Z16hoc_dec_refcountPP6Object
_Z16hoc_dos2unixpathPKc
_Z16hoc_external_varP6Symbol
_Z16hoc_forward2backPc
_Z16hoc_free_pstringPPc
_Z16hoc_ivfixedvaluePKcS0_bb
_Z16hoc_l_insertitemP8hoc_ItemS0_
_Z16hoc_l_insertlistP8hoc_ItemS0_
_Z16hoc_l_insertvoidP8hoc_ItemPv
_Z16hoc_l_lappendlstP8hoc_ItemS0_
_Z16hoc_l_lappendobjP8hoc_ItemP6Object
_Z16hoc_l_lappendsecP8hoc_ItemP7Section
_Z16hoc_l_lappendstrP8hoc_ItemPKc
_Z16hoc_l_lappendsymP8hoc_ItemP6Symbol
_Z16hoc_l_linsertstrP8hoc_ItemPKc
_Z16hoc_l_linsertsymP8hoc_ItemP6Symbol
_Z16hoc_machine_namev
_Z16hoc_menu_cleanupv
_Z16hoc_notify_valuev
_Z16hoc_nrn_load_dllv
_Z16hoc_obj_file_argi
_Z16hoc_path_prependPcPKcS1_
_Z16hoc_register_varP8DoubScalP7DoubVecP8VoidFunc
_Z16hoc_save_sessionv
_Z16hoc_stkobj_unrefP6Objecti
_Z16hoc_strgets_needv
_Z16hoc_symbol_unitsP6SymbolPKc
_Z16hoc_table_lookupPKcP7Symlist
_Z16hoc_temp_charptrv
_Z16hoc_xradiobuttonv
_Z16hoc_xstatebuttonv
_Z16inputReadyThreadv
_Z16is_point_processP6Object
_Z16isaac64_generateP13isaac64_state
_Z16iv_display_scalef
_Z16iv_display_scaleff
_Z16iv_rescale_unmapv
_Z16iv_window_coordsRK7ivEventP8ivWindowRfS4_
_Z16ivoc_vector_sizeP6Object
_Z16ivocmain_sessioniPPKcS1_i
_Z16long_difus_solveiP9NrnThread
_Z16newton1_IntFire2PdP5DatumS1_P9NrnThreadddddd
_Z16node_index_exactP7Sectiond
_Z16nrn_arc_positionP7SectionP4Node
_Z16nrn_at_beginningP7Section
_Z16nrn_define_shapev
_Z16nrn_div_capacityP9NrnThreadP9Memb_list
_Z16nrn_get_mechtypePKc
_Z16nrn_hoc2gather_yPv
_Z16nrn_mul_capacityP9NrnThreadP9Memb_list
_Z16nrn_netcon_eventP6NetCond
_Z16nrn_noerr_accessv
_Z16nrn_notify_freedPFvPviE
_Z16nrn_pool_freeallPv
_Z16nrn_presyn_countP6PreSyn
_Z16nrn_print_matrixP9NrnThread
_Z16nrn_random_resetP4Rand
_Z16nrn_random_resetPv
_Z16nrn_rangepointerP7SectionP6Symbold
_Z16nrn_section_freeP7Section
_Z16nrn_seg_or_x_argiPP7SectionPd
_Z16nrn_thread_errorPKc
_Z16nrn_threads_freev
_Z16nrn_update_ps2ntv
_Z16nrn_use_busywaiti
_Z16nrniv_sh_nearestPv
_Z16nrniv_sh_observePv
_Z16nrnmpi_gid_cleari
_Z16nrnpy_newsectionP9NPySecObj
_Z16nrnran123_getidsP15nrnran123_StatePjS1_
_Z16nrnran123_getseqP15nrnran123_StatePjPc
_Z16nrnran123_negexpP15nrnran123_State
_Z16nrnran123_normalP15nrnran123_State
_Z16nrnran123_setseqP15nrnran123_Statejc
_Z16point_reg_helperP6Symbol
_Z16reorder_secorderv
_Z16sec_and_positionP7SectionP4Node
_Z16second_order_curP9NrnThread
_Z16single_event_runv
_Z16single_prop_freeP4Prop
_Z16spLargestElementPc
_Z16spMultTransposedPcPdS0_St8optionalIS0_ES2_
_Z16spOrderAndFactorPcPdddi
_Z16spcCreateElementP11MatrixFrameiiPP13MatrixElementi
_Z16special_pnt_callP6ObjectP6Symboli
_Z16var_pair_chooserPKcRfS1_P8ivWindowff
_Z16vector_get_labelP8IvocVect
_Z16vector_set_labelP8IvocVectPc
_Z16verify_structurev
_Z17MechanismType_regv
_Z17N_VMake_NrnThreadlPd
_Z17N_VProd_NrnThreadP17_generic_N_VectorS0_S0_
_Z17bbss_restore_donePv
_Z17cable_prop_assignP6SymbolPdi
_Z17clear_event_queuev
_Z17cmplx_spConditionPcdPi
_Z17cmplx_spFileStatsPcS_S_
_Z17cmplx_spPartitionPci
_Z17cmplx_spcLinkRowsP11MatrixFrame
_Z17cvode_finitialized
_Z17firetime_IntFire2PdP5DatumS1_P9NrnThreadddd
_Z17free_event_queuesv
_Z17hoc_Retrieveauditv
_Z17hoc_Symbol_limitsv
_Z17hoc_allobjectvarsv
_Z17hoc_audit_commandPKc
_Z17hoc_begintemplateP6Symbol
_Z17hoc_current_xopenv
_Z17hoc_delete_symbolv
_Z17hoc_execerror_mesPKcS0_i
_Z17hoc_free_symspaceP6Symbol
_Z17hoc_getdata_rangei
_Z17hoc_is_double_argi
_Z17hoc_is_object_argi
_Z17hoc_iterator_stmtv
_Z17hoc_ivradiobuttonPKcS0_bP6Object
_Z17hoc_ivstatebuttonPdPKcS1_iP6ObjectS3_
_Z17hoc_ivvaluerun_exPKcS0_PdP6ObjectS0_S3_bbbP15HocSymExtension
_Z17hoc_l_lappenditemP8hoc_ItemS0_
_Z17hoc_l_lappendvoidP8hoc_ItemPv
_Z17hoc_level_pushsecP7Section
_Z17hoc_load_templatev
_Z17hoc_name_declaredv
_Z17hoc_object_pushedv
_Z17hoc_obvar_declareP6Symbolii
_Z17hoc_print_sessionv
_Z17hoc_regexp_searchPKc
_Z17hoc_string_dialogv
_Z17hoc_symbol_limitsP6Symbolff
_Z17hoc_unlink_symbolP6SymbolP7Symlist
_Z17hoc_win32_cleanupv
_Z17iv_mswin_to_pixeli
_Z17iv_pixel_to_mswini
_Z17ivoc_alias_lookupPKcP6Object
_Z17ivoc_bring_to_topP8ivWindow
_Z17ivoc_gr_menu_toolPv
_Z17loc_point_processiPv
_Z17make_pointprocessv
_Z17ncs2nrn_integrated
_Z17nrn_hoc2scatter_yPv
_Z17nrn_is_artificiali
_Z17nrn_is_gui_threadv
_Z17nrn_length_changeP7Sectiond
_Z17nrn_mk_prop_poolsi
_Z17nrn_netcon_targetP6NetCon
_Z17nrn_netcon_weightP6NetConPPd
_Z17nrn_onethread_jobiPFPvP9NrnThreadE
_Z17nrn_presyn_netconP6PreSyni
_Z17nrn_sec2pysecnameP7Section
_Z17nrn_secref_nchildP7Section
_Z17nrn_section_allocv
_Z17nrn_seg_or_x_arg2iPP7SectionPd
_Z17nrn_vecsim_removePv
_Z17nrnallsectionmenuv
_Z17nrndae_deregisterP6NrnDAE
_Z17nrnglobalmechmenuv
_Z17nrnisaac_dbl_pickPv
_Z17nrniv_bind_threadv
_Z17nrniv_recalc_ptrsv
_Z17nrnmpi_multisplitP7Sectiondii
_Z17nrnmpi_source_varv
_Z17nrnmpi_target_varv
_Z17nrnran123_dblpickP15nrnran123_State
_Z17nrnran123_getids3P15nrnran123_StatePjS1_S1_
_Z17parent_connectionv
_Z17pargap_jacobi_rhsPdS_
_Z17range_interpolatev
_Z17record_init_clearPK6TQItemi
_Z17sec_access_objectv
_Z17setup_tree_matrixP9NrnThread
_Z17spPseudoConditionPc
_Z17spSolveTransposedPcPdS0_St8optionalIS0_ES2_
_Z17stdin_event_readyv
_Z18N_VAbs_NrnSerialLDP17_generic_N_VectorS0_
_Z18N_VAbs_NrnThreadLDP17_generic_N_VectorS0_
_Z18N_VClone_NrnThreadP17_generic_N_Vector
_Z18N_VConst_NrnThreaddP17_generic_N_Vector
_Z18N_VDiv_NrnSerialLDP17_generic_N_VectorS0_S0_
_Z18N_VDiv_NrnThreadLDP17_generic_N_VectorS0_S0_
_Z18N_VInv_NrnSerialLDP17_generic_N_VectorS0_
_Z18N_VInv_NrnThreadLDP17_generic_N_VectorS0_
_Z18N_VMin_NrnSerialLDP17_generic_N_Vector
_Z18N_VMin_NrnThreadLDP17_generic_N_Vector
_Z18N_VNew_NrnSerialLDl
_Z18N_VNew_NrnThreadLDliPl
_Z18N_VPrint_NrnThreadP17_generic_N_Vector
_Z18N_VScale_NrnThreaddP17_generic_N_VectorS0_
_Z18N_VSpace_NrnThreadP17_generic_N_VectorPlS1_
_Z18SectionBrowser_regv
_Z18add_nrn_fornetconsii
_Z18alpha_AlphaSynapsePdP5DatumS1_P9NrnThreadd
_Z18bbss_buffer_countsPiPS_S0_S_
_Z18cmplx_spFileMatrixPcS_S_iii
_Z18cmplx_spFileVectorPcS_PdS0_
_Z18cmplx_spGetElementPcii
_Z18cmplx_spSetComplexPc
_Z18cmplx_spStripFillsPc
_Z18cmplx_spcGetFillinP11MatrixFrame
_Z18deliver_net_eventsP9NrnThread
_Z18forall_sectionlistv
_Z18get_handle_for_libRKNSt10filesystem7__cxx114pathE
_Z18hoc_add_publiclistP6Symbol
_Z18hoc_boolean_dialogv
_Z18hoc_free_arrayinfoP9Arrayinfo
_Z18hoc_free_val_arrayPdy
_Z18hoc_get_config_keyv
_Z18hoc_get_config_valv
_Z18hoc_is_pdouble_argi
_Z18hoc_is_tempobj_argi
_Z18hoc_obj_disconnectP6Object
_Z18hoc_pysec_name2ptrPKci
_Z18hoc_readcheckpointPc
_Z18hoc_reg_nmodl_textiPKc
_Z18hoc_regexp_compilePKc
_Z18hoc_register_cvodeiPFiiEPFviPPdS2_S1_P5DatumS1_iEPFvP9NrnThreadP9Memb_listiESC_
_Z18hoc_register_unitsiP12HocParmUnits
_Z18hoc_retrieve_auditi
_Z18hoc_which_templateP6Symbol
_Z18initps_PatternStimPdP5DatumS1_P9NrnThread
_Z18ivoc_dismiss_deferv
_Z18ivoc_get_temp_filev
_Z18ivoc_gr_begin_linePv
_Z18ivoc_win32_cleanupv
_Z18neuronhome_forwardv
_Z18nof_worker_threadsv
_Z18nrn_allow_busywaiti
_Z18nrn_calc_fast_imemP9NrnThread
_Z18nrn_call_mech_funcP6SymboliP4Propi
_Z18nrn_classicalNodeAP4Node
_Z18nrn_classicalNodeBP4Node
_Z18nrn_cleanup_presynP6PreSyn
_Z18nrn_deliver_eventsP9NrnThread
_Z18nrn_feenableexceptv
_Z18nrn_get_config_keyy
_Z18nrn_get_config_valy
_Z18nrn_hoc2fixed_stepPv
_Z18nrn_increment_markP7Section
_Z18nrn_instance_counti
_Z18nrn_mk_table_checkv
_Z18nrn_mswindll_stdioP6_iobufS0_S0_
_Z18nrn_multisend_sendP6PreSynd
_Z18nrn_node_destruct1P4Node
_Z18nrn_partrans_clearv
_Z18nrn_prop_data_freeiPd
_Z18nrn_section_existsPciP6Object
_Z18nrn_solver_preparev
_Z18nrn_spike_exchangeP9NrnThread
_Z18nrn_threads_createib
_Z18nrn_update_voltageP9NrnThread
_Z18nrn_user_partitionv
_Z18nrncore_is_enabledv
_Z18nrniv_sh_color_allPv
_Z18nrnmpi_split_clearv
_Z18nrnpy_rangepointerP7SectionP6SymboldPii
_Z18nrnran123_uint2dblj
_Z18nrnunit_use_legacyv
_Z18ob_sec_access_pushP8hoc_Item
_Z18oc_restore_cabcodePiS_
_Z18oc_restore_hoc_oopPP6ObjectPP10ObjectdataPiPP7Symlist
_Z18oc_save_input_infoPPKcPiS2_PP6_iobuf
_Z18vector_buffer_sizeP8IvocVect
_Z18vector_buffer_sizePv
_Z18vector_instance_pxPvPPd
_Z18vector_temp_objvarP8IvocVect
_Z18virtual_window_topv
_Z19LinearMechanism_regv
_Z19N_VL1Norm_NrnThreadP17_generic_N_Vector
_Z19N_VMake_NrnSerialLDlPd
_Z19N_VMake_NrnThreadLDlPd
_Z19N_VProd_NrnSerialLDP17_generic_N_VectorS0_S0_
_Z19N_VProd_NrnThreadLDP17_generic_N_VectorS0_S0_
_Z19ParallelContext_regv
_Z19StringFunctions_regv
_Z19_modl_get_dt_threadP9NrnThread
_Z19_modl_set_dt_threaddP9NrnThread
_Z19_nrn_free_fornetconPPv
_Z19_nrn_watch_activateP5DatumPFdP13Point_processEiS2_id
_Z19_nrn_watch_allocateP5DatumPFdP13Point_processEiS2_d
_Z19bbsavestate_NetStimPdP5DatumS1_P9NrnThread
_Z19bbss_restore_globalPvPci
_Z19check_domain_limitsPfd
_Z19cmplx_spDeterminantPcPiPdSt8optionalIS1_E
_Z19cmplx_spFillinCountPc
_Z19cmplx_spcGetElementP11MatrixFrame
_Z19contiguous_art_dataPPdii
_Z19corenrn_mpi_libraryB5cxx11
_Z19extcell_node_createP4Node
_Z19geometry3d_new_Conedddddddd
_Z19graphLineRecDeletedP9GraphLine
_Z19hoc_after_prax_quadPc
_Z19hoc_asgn_obj_to_strv
_Z19hoc_construct_pointP6Objecti
_Z19hoc_continue_dialogv
_Z19hoc_fgets_unlimitedP6HocStrP6_iobuf
_Z19hoc_free_allobjectsP9cTemplateP7SymlistP10Objectdata
_Z19hoc_install_hoc_objv
_Z19hoc_is_temp_charptrPPc
_Z19hoc_iterator_objectP6SymboliP4InstS2_P6Object
_Z19hoc_new_object_asgnPP6ObjectP6SymbolPv
_Z19hoc_num_config_keysv
_Z19hoc_object_pathnameP6Object
_Z19hoc_objectdata_savev
_Z19hoc_objectpath_implP6ObjectS0_Pci
_Z19hoc_reg_bbcore_readiPFvPdPiS0_S0_S_P5DatumS2_P9NrnThreadE
_Z19hoc_register_limitsiP13HocParmLimits
_Z19hoc_resize_topleveli
_Z19hoc_template_notifyP6Objecti
_Z19ivoc_gr_menu_actionPv
_Z19ivoc_gr_menu_removePv
_Z19lvappendsec_and_refPvP7Section
_Z19mswin_delete_objectPv
_Z19nrn2ncs_outputeventid
_Z19nrn_cacheline_allocPPvy
_Z19nrn_daspk_init_stepddi
_Z19nrn_fast_imem_allocv
_Z19nrn_imem_defer_freePd
_Z19nrn_load_name_checkPKc
_Z19nrn_mechanism_checkiP7Sectioni
_Z19nrn_multithread_jobPFPvP9NrnThreadE
_Z19nrn_node_construct1v
_Z19nrn_num_config_keysv
_Z19nrn_old_thread_savev
_Z19nrn_prop_data_allociiP4Prop
_Z19nrn_prop_datum_freeiP5Datum
_Z19nrn_random_isran123P4RandPjS1_S1_
_Z19nrn_random_isran123PvPjS0_S0_
_Z19nrn_realpath_dlopenPKci
_Z19nrn_sec2cell_equalsP7SectionP6Object
_Z19nrn_spec_dialog_posRfS_
_Z19nrn_usable_mindelayv
_Z19nrnbbcore_gap_writePKcPi
_Z19nrnbbs_context_waitv
_Z19nrniv_sh_color_listPv
_Z19nrnmpi_load_or_exitb
_Z19nrnpy_pysecname2secPKc
_Z19nrnran123_newstreamjj
_Z19pargap_jacobi_setupi
_Z19point_register_mechPPKcPFvP4PropEPFvP9NrnThreadP9Memb_listiESB_SB_SB_iiPFPvP6ObjectEPFvSC_EP11Member_func
_Z19prop_alloc_disallowPP4PropsP4Node
_Z19rangevarevalpointerv
_Z19register_destructorPFvP4PropE
_Z19section_orientationv
_Z19spcFindElementInColP11MatrixFramePP13MatrixElementiii
_Z19state_discontinuityiPdd
_Z19steer_point_processPv
_Z19write_corenrn_modelRKNSt7__cxx1112basic_stringIcSt11char_traitsIcESaIcEEE
_Z20ListImpl_range_errorl
_Z20N_VAbs_NrnParallelLDP17_generic_N_VectorS0_
_Z20N_VClone_NrnSerialLDP17_generic_N_Vector
_Z20N_VClone_NrnThreadLDP17_generic_N_Vector
_Z20N_VCompare_NrnThreaddP17_generic_N_VectorS0_
_Z20N_VConst_NrnSerialLDdP17_generic_N_Vector
_Z20N_VConst_NrnThreadLDdP17_generic_N_Vector
_Z20N_VDestroy_NrnThreadP17_generic_N_Vector
_Z20N_VDiv_NrnParallelLDP17_generic_N_VectorS0_S0_
_Z20N_VDotProd_NrnThreadP17_generic_N_VectorS0_
_Z20N_VInvTest_NrnThreadP17_generic_N_VectorS0_
_Z20N_VInv_NrnParallelLDP17_generic_N_VectorS0_
_Z20N_VMaxNorm_NrnThreadP17_generic_N_Vector
_Z20N_VMin_NrnParallelLDP17_generic_N_Vector
_Z20N_VOneMask_NrnThreadP17_generic_N_Vector
_Z20N_VPrint_NrnSerialLDP17_generic_N_Vector
_Z20N_VPrint_NrnThreadLDP17_generic_N_Vector
_Z20N_VScale_NrnSerialLDdP17_generic_N_VectorS0_
_Z20N_VScale_NrnThreadLDdP17_generic_N_VectorS0_
_Z20N_VSpace_NrnSerialLDP17_generic_N_VectorPlS1_
_Z20N_VSpace_NrnThreadLDP17_generic_N_VectorPlS1_
_Z20N_VWL2Norm_NrnThreadP17_generic_N_VectorS0_
_Z20ValueFieldEditor_regv
_Z20cmplx_spElementCountPc
_Z20cmplx_spMNA_PreorderPc
_Z20cmplx_spcColExchangeP11MatrixFrameii
_Z20cmplx_spcRowExchangeP11MatrixFrameii
_Z20connect_obsec_syntaxv
_Z20create_point_processiP6Object
_Z20geometry3d_new_Planedddddd
_Z20hoc_arayinfo_installP6Symboli
_Z20hoc_chk_sym_has_ndimv
_Z20hoc_dos2cygdrivepathPKci
_Z20hoc_inside_stacktypei
_Z20hoc_object_componentv
_Z20hoc_on_init_registerPFvvE
_Z20hoc_reg_bbcore_writeiPFvPdPiS0_S0_S_P5DatumS2_P9NrnThreadE
_Z20hoc_register_ldifus1PFvPFviPFdiPdP5DatumS_S_S1_P9NrnThreadEPPviiiS3_ES3_E
_Z20hoc_register_synonymiPFviPPdPP5DatumE
_Z20hoc_retrieving_auditv
_Z20hoc_section_pathnameP7Section
_Z20hoc_single_event_runv
_Z20hoc_symbol_toleranceP6Symbold
_Z20hoc_total_array_dataP6SymbolP10Objectdata
_Z20hoc_xopen_from_auditPKc
_Z20is_coreneuron_loadedv
_Z20ivcleanup_add_windowP8ivWindow
_Z20nlayer_extracellularv
_Z20notify_pointer_freedPv
_Z20nrn_add_sibling_listP7Section
_Z20nrn_cacheline_callocPPvyy
_Z20nrn_capacity_currentP9NrnThreadP9Memb_list
_Z20nrn_check_conc_writeP4PropS0_i
_Z20nrn_delete_prop_pooli
_Z20nrn_fixed_step_groupi
_Z20nrn_gid2outputpresyni
_Z20nrn_matrix_node_freev
_Z20nrn_multisplit_bksubP9NrnThread
_Z20nrn_netcon_get_delayP6NetCon
_Z20nrn_netcon_set_delayP6NetCond
_Z20nrn_new_pointprocessP6Symbol
_Z20nrn_opaque_obj2pyobjP6Object
_Z20nrn_prop_datum_allociiP4Prop
_Z20nrn_random123_getseqP4RandPjPc
_Z20nrn_random123_getseqPvPjPc
_Z20nrn_random123_setseqP4Randjc
_Z20nrn_random123_setseqPvjc
_Z20nrn_recalc_ptrvectorv
_Z20nrn_sectionref_steerP7SectionP6SymbolPi
_Z20nrn_thread_partitioniP6Object
_Z20nrn_wait_for_threadsv
_Z20nrncore_is_file_modev
_Z20nrncore_netpar_bytesv
_Z20nrndae_list_is_emptyv
_Z20nrnisaac_uint32_pickPv
_Z20nrniv_sh_nearest_segPv
_Z20nrnran123_newstream3jjj
_Z20pwm_session_filenamev
_Z20simpleconnectsectionv
_Z20write_nrnthread_taskPKcP9CellGroupb
_Z21MechanismStandard_regv
_Z21N_VAddConst_NrnThreadP17_generic_N_VectordS0_
_Z21N_VL1Norm_NrnSerialLDP17_generic_N_Vector
_Z21N_VL1Norm_NrnThreadLDP17_generic_N_Vector
_Z21N_VMake_NrnParallelLDillPd
_Z21N_VNewEmpty_NrnThreadliPl
_Z21N_VProd_NrnParallelLDP17_generic_N_VectorS0_S0_
_Z21N_VWrmsNorm_NrnThreadP17_generic_N_VectorS0_
_Z21_nrn_thread_table_regiPFvPdP5DatumS1_P9NrnThreadiE
_Z21add_nrn_has_net_eventi
_Z21cmplx_spGetAdmittancePciiP10spTemplate
_Z21cmplx_spWhereSingularPcPiS0_
_Z21destroy_point_processPv
_Z21extnode_free_elementsP7Extnode
_Z21fixed_play_continuousP9NrnThread
_Z21geometry3d_llgramareaPdS_S_
_Z21geometry3d_new_Spheredddd
_Z21get_coreneuron_handlev
_Z21get_loc_point_processPv
_Z21hoc_audit_from_xopen1PKcS0_
_Z21hoc_chk_sym_has_ndim1v
_Z21hoc_chk_sym_has_ndim2v
_Z21hoc_coredump_on_errorv
_Z21hoc_coreneuron_handlev
_Z21hoc_look_inside_stackIDnERKT_i
_Z21hoc_look_inside_stackIP6ObjectERKT_i
_Z21hoc_look_inside_stackIP6SymbolERKT_i
_Z21hoc_look_inside_stackIPP6ObjectERKT_i
_Z21hoc_look_inside_stackIPPcERKT_i
_Z21hoc_look_inside_stackIPdERKT_i
_Z21hoc_look_inside_stackIdERKT_i
_Z21hoc_look_inside_stackIiERKT_i
_Z21hoc_sec_internal_pushv
_Z21install_vector_methodPKcPFdPvE
_Z21nrn_event_queue_statsPd
_Z21nrn_loc_point_processiP13Point_processP7SectionP4Node
_Z21nrn_method_consistentv
_Z21nrn_multisend_advancev
_Z21nrn_multisplit_triangP9NrnThread
_Z21nrn_netcon_get_threshP6NetCon
_Z21nrn_netcon_set_threshP6NetCond
_Z21nrn_nonvint_block_exeiiPdS_i
_Z21nrn_pending_selfqueuedP9NrnThread
_Z21nrn_symdir_load_pysecR10SymbolListPv
_Z21nrniv_sh_selected_segPv
_Z21nrnmpi_setup_transferv
_Z21nrnmpi_spike_compressibi
_Z21oc_restore_input_infoPKciiP6_iobuf
_Z21point_process_pointerP13Point_processP6Symboli
_Z21sendgroup_PatternStimPdP5DatumS1_P9NrnThread
_Z21write_memb_mech_typesPKc
_Z22FInitializeHandler_regv
_Z22N_VClone_NrnParallelLDP17_generic_N_Vector
_Z22N_VCompare_NrnSerialLDdP17_generic_N_VectorS0_
_Z22N_VCompare_NrnThreadLDdP17_generic_N_VectorS0_
_Z22N_VConst_NrnParallelLDdP17_generic_N_Vector
_Z22N_VDestroy_NrnSerialLDP17_generic_N_Vector
_Z22N_VDestroy_NrnThreadLDP17_generic_N_Vector
_Z22N_VDotProd_NrnSerialLDP17_generic_N_VectorS0_
_Z22N_VDotProd_NrnThreadLDP17_generic_N_VectorS0_
_Z22N_VInvTest_NrnSerialLDP17_generic_N_VectorS0_
_Z22N_VInvTest_NrnThreadLDP17_generic_N_VectorS0_
_Z22N_VLinearSum_NrnThreaddP17_generic_N_VectordS0_S0_
_Z22N_VMaxNorm_NrnSerialLDP17_generic_N_Vector
_Z22N_VMaxNorm_NrnThreadLDP17_generic_N_Vector
_Z22N_VOneMask_NrnSerialLDP17_generic_N_Vector
_Z22N_VOneMask_NrnThreadLDP17_generic_N_Vector
_Z22N_VPrint_NrnParallelLDP17_generic_N_Vector
_Z22N_VScale_NrnParallelLDdP17_generic_N_VectorS0_
_Z22N_VSpace_NrnParallelLDP17_generic_N_VectorPlS1_
_Z22N_VWL2Norm_NrnSerialLDP17_generic_N_VectorS0_
_Z22N_VWL2Norm_NrnThreadLDP17_generic_N_VectorS0_
_Z22cmplx_spLargestElementPc
_Z22cmplx_spMultTransposedPcPdS0_St8optionalIS0_ES2_
_Z22cmplx_spOrderAndFactorPcPdddi
_Z22cmplx_spcCreateElementP11MatrixFrameiiPP13MatrixElementi
_Z22firetimebound_IntFire4PdP5DatumS1_P9NrnThread
_Z22geometry3d_delete_ConePv
_Z22hoc_class_registrationv
_Z22hoc_objectdata_restoreP10Objectdata
_Z22hoc_oop_initaftererrorv
_Z22hoc_reg_nmodl_filenameiPKc
_Z22hoc_reg_watch_allocateiPFvP5DatumE
_Z22hoc_register_prop_sizeiii
_Z22hoc_register_toleranceiP17HocStateTolerancePPP6Symbol
_Z22hoc_stack_type_is_ndimv
_Z22ivcleanup_after_windowP8ivWindow
_Z22net_cvode_instance_prlv
_Z22net_cvode_instance_pslv
_Z22notify_freed_val_arrayPdy
_Z22nrn_cache_prop_reallocv
_Z22nrn_linmod_update_ptrsPv
_Z22nrn_multisplit_nocap_vv
_Z22nrn_thread_table_checkv
_Z22nrn_update_ion_pointerP6SymbolP5Datumii
_Z22nrn_write_mapping_infoPKciR14NrnMappingInfo
_Z22nrndae_extra_eqn_countv
_Z22nrnran123_deletestreamP15nrnran123_State
_Z22setAcceptInputCallbackb
_Z23ListImpl_best_new_countljj
_Z23N_VAddConst_NrnSerialLDP17_generic_N_VectordS0_
_Z23N_VAddConst_NrnThreadLDP17_generic_N_VectordS0_
_Z23N_VCloneEmpty_NrnThreadP17_generic_N_Vector
_Z23N_VConstrMask_NrnThreadP17_generic_N_VectorS0_S0_
_Z23N_VL1Norm_NrnParallelLDP17_generic_N_Vector
_Z23N_VNewEmpty_NrnSerialLDl
_Z23N_VNewEmpty_NrnThreadLDliPl
_Z23N_VWrmsNorm_NrnSerialLDP17_generic_N_VectorS0_
_Z23N_VWrmsNorm_NrnThreadLDP17_generic_N_VectorS0_
_Z23cable_prop_eval_pointerP6Symbol
_Z23cmplx_spDeleteRowAndColPcii
_Z23cmplx_spPseudoConditionPc
_Z23cmplx_spSolveTransposedPcPdS0_St8optionalIS0_ES2_
_Z23fixed_record_continuousP9NrnThread
_Z23geometry3d_delete_PlanePv
_Z23geometry3d_new_Cylinderddddddd
_Z23hoc_push_current_objectv
_Z23hoc_show_errmess_alwaysv
_Z23ivcleanup_remove_windowP8ivWindow
_Z23nrn_connection_positionP7Section
_Z23nrn_fixed_step_lastpartP9NrnThread
_Z23nrn_get_random_sequenceP4Rand
_Z23nrn_get_random_sequencePv
_Z23nrn_how_many_processorsv
_Z23nrn_interthread_enqueueP9NrnThread
_Z23nrn_relocate_old_pointsP7SectionP4NodeS0_S2_
_Z23nrn_remove_sibling_listP7Section
_Z23nrn_section_orientationP7Section
_Z23nrn_set_random_sequenceP4Randl
_Z23nrn_set_random_sequencePvi
_Z23nrn_spike_exchange_initv
_Z23nrnbbcore_vecplay_writeP6_iobufR9NrnThread
_Z23nrnmpi_multisplit_clearv
_Z23nrnpy_pysecname2sec_addP7Section
_Z24N_VCompare_NrnParallelLDdP17_generic_N_VectorS0_
_Z24N_VDestroy_NrnParallelLDP17_generic_N_Vector
_Z24N_VDotProd_NrnParallelLDP17_generic_N_VectorS0_
_Z24N_VInvTest_NrnParallelLDP17_generic_N_VectorS0_
_Z24N_VLinearSum_NrnSerialLDdP17_generic_N_VectordS0_S0_
_Z24N_VLinearSum_NrnThreadLDdP17_generic_N_VectordS0_S0_
_Z24N_VMaxNorm_NrnParallelLDP17_generic_N_Vector
_Z24N_VMinQuotient_NrnThreadP17_generic_N_VectorS0_
_Z24N_VWL2Norm_NrnParallelLDP17_generic_N_VectorS0_
_Z24StateTransitionEvent_regv
_Z24geometry3d_delete_SpherePv
_Z24hoc_audit_from_hoc_main1iPPKcS1_
_Z24hoc_ivvalue_keep_updatedPKcS0_P6Object
_Z24map_coreneuron_callbacksPv
_Z24nrn_extcell_update_paramv
_Z24nrn_extra_scatter_gatherii
_Z24nrn_get_gui_redirect_objv
_Z24nrn_is_valid_section_ptrPv
_Z24nrn_nonvint_block_helperiiPdS_i
_Z24nrn_partrans_update_ptrsv
_Z24nrn_patternstim_info_refP5Datum
_Z24nrn_register_mech_commonPPKcPFvP4PropEPFvP9NrnThreadP9Memb_listiESB_SB_SB_ii
_Z24nrnmpi_splitcell_connecti
_Z24range_interpolate_singlev
_Z25N_VAddConst_NrnParallelLDP17_generic_N_VectordS0_
_Z25N_VCloneEmpty_NrnSerialLDP17_generic_N_Vector
_Z25N_VCloneEmpty_NrnThreadLDP17_generic_N_Vector
_Z25N_VConstrMask_NrnSerialLDP17_generic_N_VectorS0_S0_
_Z25N_VConstrMask_NrnThreadLDP17_generic_N_VectorS0_S0_
_Z25N_VNewEmpty_NrnParallelLDill
_Z25N_VWrmsNormMask_NrnThreadP17_generic_N_VectorS0_S0_
_Z25N_VWrmsNorm_NrnParallelLDP17_generic_N_VectorS0_
_Z25cmplx_spcFindElementInColP11MatrixFramePP13MatrixElementiii
_Z25geometry3d_find_trianglesddddddddddddddPdi
_Z25hoc_audit_from_final_exitv
_Z25hoc_obj_look_inside_stacki
_Z25hoc_sec_internal_name2ptrPKci
_Z25nrn_multisplit_adjust_rhsP9NrnThread
_Z25nrn_multisplit_ptr_updatev
_Z25nrn_thread_memblist_setupv
_Z25nrnran123_get_globalindexv
_Z25nrnran123_set_globalindexj
_Z25write_contiguous_art_dataPPdiiP6_iobuf
_Z26N_VLinearSum_NrnParallelLDdP17_generic_N_VectordS0_S0_
_Z26N_VMinQuotient_NrnSerialLDP17_generic_N_VectorS0_
_Z26N_VMinQuotient_NrnThreadLDP17_generic_N_VectorS0_
_Z26clear_point_process_structP4Prop
_Z26geometry3d_delete_CylinderPv
_Z26kschan_cvode_single_updatev
_Z26nrn_load_dll_recover_errorv
_Z26nrn_multisend_receive_timei
_Z26nrn_notify_when_void_freedPvP10ivObserver
_Z26nrnbbcore_register_mappingv
_Z26nrnpy_pysecname2sec_removeP7Section
_Z27N_VCloneEmpty_NrnParallelLDP17_generic_N_Vector
_Z27N_VConstrMask_NrnParallelLDP17_generic_N_VectorS0_S0_
_Z27N_VNewVectorArray_NrnThreadiliPl
_Z27N_VWrmsNormMask_NrnSerialLDP17_generic_N_VectorS0_S0_
_Z27N_VWrmsNormMask_NrnThreadLDP17_generic_N_VectorS0_S0_
_Z27hoc_get_last_pointer_symbolv
_Z27nrn_multisplit_reduce_solveP9NrnThread
_Z27nrn_prop_is_cache_efficientv
_Z28N_VGetArrayPointer_NrnThreadP17_generic_N_Vector
_Z28N_VMinQuotient_NrnParallelLDP17_generic_N_VectorS0_
_Z28N_VSetArrayPointer_NrnThreadPdP17_generic_N_Vector
_Z28nrn_multisplit_nocap_v_part1P9NrnThread
_Z28nrn_multisplit_nocap_v_part2P9NrnThread
_Z28nrn_multisplit_nocap_v_part3P9NrnThread
_Z28nrn_notify_when_double_freedPdP10ivObserver
_Z29N_VNewVectorArray_NrnSerialLDil
_Z29N_VNewVectorArray_NrnThreadLDiliPl
_Z29N_VWrmsNormMask_NrnParallelLDP17_generic_N_VectorS0_S0_
_Z29connect_point_process_pointerv
_Z29hoc_install_object_data_indexP6Symbol
_Z29hoc_register_dparam_semanticsiiPKc
_Z29nrn_notify_pointer_disconnectP10ivObserver
_Z29nrn_verify_ion_charge_definedv
_Z2riv
_Z30N_VGetArrayPointer_NrnSerialLDP17_generic_N_Vector
_Z30N_VGetArrayPointer_NrnThreadLDP17_generic_N_Vector
_Z30N_VSetArrayPointer_NrnSerialLDPdP17_generic_N_Vector
_Z30N_VSetArrayPointer_NrnThreadLDPdP17_generic_N_Vector
_Z30check_coreneuron_compatibilityPv
_Z30net_cvode_instance_event_queueP9NrnThread
_Z31N_VDestroyVectorArray_NrnThreadPP17_generic_N_Vectori
_Z31N_VNewVectorArray_NrnParallelLDiill
_Z31geometry3d_Cone_signed_distancePvddd
_Z32N_VGetArrayPointer_NrnParallelLDP17_generic_N_Vector
_Z32N_VNewVectorArrayEmpty_NrnThreadiliPl
_Z32N_VSetArrayPointer_NrnParallelLDPdP17_generic_N_Vector
_Z32geometry3d_Plane_signed_distancePvddd
_Z32geometry3d_sum_area_of_trianglesPdi
_Z32nrn2core_transfer_WatchConditionP14WatchConditionPFviiiiiE
_Z32nrn_register_recalc_ptr_callbackPFvvE
_Z32nrngsl_fft_real_radix2_transformPdyy
_Z33N_VDestroyVectorArray_NrnSerialLDPP17_generic_N_Vectori
_Z33N_VDestroyVectorArray_NrnThreadLDPP17_generic_N_Vectori
_Z33geometry3d_Sphere_signed_distancePvddd
_Z33nrn_calc_fast_imem_fixedstep_initP9NrnThread
_Z34N_VNewVectorArrayEmpty_NrnSerialLDil
_Z34N_VNewVectorArrayEmpty_NrnThreadLDiliPl
_Z34hoc_set_unhandled_exception_filterv
_Z35N_VDestroyVectorArray_NrnParallelLDPP17_generic_N_Vectori
_Z35geometry3d_Cylinder_signed_distancePvddd
_Z36N_VNewVectorArrayEmpty_NrnParallelLDiill
_Z37nrngsl_fft_halfcomplex_radix2_inversePdyy
_Z38nrngsl_fft_halfcomplex_radix2_backwardPdyy
_Z39nrngsl_fft_halfcomplex_radix2_transformPdyy
_Z3ghkv
_Z3lagPdddi
_Z3n3dv
_Z3varIN9__gnu_cxx17__normal_iteratorIPdSt6vectorIdSaIdEEEEEdT_S7_
_Z3x3dv
_Z3y3dv
_Z3z3dv
_Z4Stopv
_Z4areav
_Z4findPv
_Z4fsynv
_Z4rampPiPddddd
_Z4stepPiPdddd
_Z5arc3dv
_Z5crankiPdS_S_dddPS_S0_
_Z5dpropP6SymboliP7Sections
_Z5forcedPc
_Z5fstimv
_Z5fsyngv
_Z5fsyniv
_Z5gaussddd
_Z5ifargi
_Z5pulsePiPddddd
_Z5yylexv
_Z6chkargidd
_Z6cmpfcndd
_Z6concatPKcS0_
_Z6d_signPdS_
_Z6derivsiPdS_S_S_
_Z6diam3dv
_Z6expfitPdPcS_S_S_
_Z6fclampv
_Z6fstimiv
_Z6hoc_Lwv
_Z6hoc_eqv
_Z6hoc_gev
_Z6hoc_gtv
_Z6hoc_lev
_Z6hoc_ltv
_Z6hoc_nev
_Z6hoc_ocPKc
_Z6hoc_ocPKcRSo
_Z6hoc_orv
_Z6insideffRK12ivAllocation
_Z6invertiPPd
_Z6nernstv
_Z6nrn_baP9NrnThreadi
_Z6nrn_raP7Section
_Z6pow_ddPdS_
_Z6pow_diPdS_
_Z6praxisPdS_S_lPlS_PFdS_lES_Pc
_Z6printfPKcz
_Z6prstimv
_Z6prterrPKc
_Z6spNormPc
_Z6splineiPdS_S_S_d
_Z6sscanfPKcS0_z
_Z7FprintfP6_iobufPKcz
_Z7WndProcP6HWND__jyx
_Z7arc0at0P7Section
_Z7at_timeP9NrnThreadd
_Z7ecallocyy
_Z7emallocy
_Z7exprandd
_Z7fclampiv
_Z7fclampvv
_Z7fmatrixv
_Z7fprintfP6_iobufPKcz
_Z7hoc_Expd
_Z7hoc_Logd
_Z7hoc_Pltv
_Z7hoc_Powdd
_Z7hoc_addv
_Z7hoc_andv
_Z7hoc_argv
_Z7hoc_divv
_Z7hoc_mulv
_Z7hoc_notv
_Z7hoc_pidv
_Z7hoc_pltidd
_Z7hoc_retv
_Z7hoc_subv
_Z7initnrnv
_Z7ion_regPKcd
_Z7nonvintP9NrnThread
_Z7nrn_ghkdddd
_Z7nrn_lhsP9NrnThread
_Z7nrn_rhsP9NrnThread
_Z7perstepPiPddddd
_Z7poissondd
_Z7print_tPKcRK13ivTransformer
_Z7pt3daddv
_Z7rombergddPFddE
_Z7secnameP7Section
_Z7sigmoiddddd
_Z7spClearPc
_Z7spErrorPc
_Z7spPrintPciii
_Z7spScalePcPdS0_
_Z7spSolvePcPdS0_St8optionalIS0_ES2_
_Z7spine3dv
_Z7tridiagiPdS_S_S_S_
_Z7yyparsev
_Z8Fig_filePKci
_Z8HBox_regv
_Z8VBox_regv
_Z8_advanceiiPiS_PdS0_dPFivEPPS0_i
_Z8bbs_donev
_Z8boundaryiPdS_PFddES1_S1_
_Z8class2ocPKcPFPvP6ObjectEPFvS1_EP11Member_funcPFiPS1_EP19Member_ret_obj_funcP19Member_ret_str_func
_Z8distancev
_Z8ereallocPvy
_Z8fadvancev
_Z8fcurrentv
_Z8harmonicdddd
_Z8hoc1_Expd
_Z8hoc_CodePFvvE
_Z8hoc_Plotv
_Z8hoc_Sqrtd
_Z8hoc_Sredv
_Z8hoc_Xredv
_Z8hoc_axisv
_Z8hoc_callv
_Z8hoc_declP6Symbol
_Z8hoc_evalv
_Z8hoc_helpv
_Z8hoc_initv
_Z8hoc_ipopv
_Z8hoc_iredPKciii
_Z8hoc_quitv
_Z8hoc_scanP6_iobuf
_Z8hoc_spopv
_Z8hoc_sredPKcPcS1_
_Z8hoc_xpopv
_Z8hoc_xredPKcddd
_Z8hyperbolddd
_Z8initplotv
_Z8ivocmainiPPKcS1_
_Z8legendreddPFddE
_Z8makePathRKNSt7__cxx1112basic_stringIcSt11char_traitsIcESaIcEEE
_Z8n2cs_addRSt3mapIKNSt7__cxx1112basic_stringIcSt11char_traitsIcESaIcEEESt4pairI8CorStypePvESt4lessIS6_ESaIS7_IS6_SA_EEES5_S5_P7Section
_Z8node_ptrP7SectiondPd
_Z8normranddd
_Z8nrn_cpppv
_Z8nrn_exiti
_Z8nrn_timev
_Z8nrnpy_prPKcz
_Z8perpulsePiPdddddd
_Z8poisrandd
_Z8print_btv
_Z8psectionv
_Z8sawtoothPiPdddd
_Z8scop_erfd
_Z8sec_freeP8hoc_Item
_Z8set_seedd
_Z8snprintfPcyPKcz
_Z8spCreateiiPi
_Z8spFactorPc
_Z8vtrap_hhPdP5DatumS1_P9NrnThreaddd
_Z9Cvode_regv
_Z9Graph_regv
_Z9Shape_regv
_Z9abort_runi
_Z9batch_runv
_Z9bbss_savePviPci
_Z9cab_allocP4Prop
_Z9dumpStyleP7ivStylePKc
_Z9factoriald
_Z9gif_imagePKc
_Z9hoc_Breakv
_Z9hoc_Chdirv
_Z9hoc_Fscanv
_Z9hoc_Graphv
_Z9hoc_Log10d
_Z9hoc_Prmatv
_Z9hoc_atan2v
_Z9hoc_bltinv
_Z9hoc_chdirPKc
_Z9hoc_codeii
_Z9hoc_debugv
_Z9hoc_fmenuv
_Z9hoc_getnbv
_Z9hoc_ifsecv
_Z9hoc_main1iPPKcS1_
_Z9hoc_nopopv
_Z9hoc_plotxv
_Z9hoc_plotyv
_Z9hoc_powerv
_Z9hoc_printv
_Z9hoc_prstrv
_Z9hoc_pushii
_Z9hoc_pushsP6Symbol
_Z9hoc_pushxd
_Z9hoc_pxpopv
_Z9hoc_ropenv
_Z9hoc_solvev
_Z9hoc_wopenv
_Z9hoc_xmenuv
_Z9hoc_xopenv
_Z9hocobjretv
_Z9ion_stylev
_Z9issectionv
_Z9ivoc_helpPKc
_Z9need_membP6Symbol
_Z9node_datav
_Z9node_distP7SectionP4Node
_Z9nrn_cvfundPdS_
_Z9nrn_solveP9NrnThread
_Z9nrnpythonv
_Z9print_synv
_Z9prop_freePP4Prop
_Z9pt3dclearv
_Z9pt3dconstv
_Z9pt3dstylev
_Z9sec_allocv
_Z9spDestroyPc
_Z9spGetOnesPciiiP10spTemplate
_Z9spGetQuadPciiiiP10spTemplate
_Z9spGetSizePci
_Z9spSetRealPc
_Z9stepforcePiPddPc
_Z9stor_pt3dP7Sectiondddd
_Z9this_nodev
_Z9thresholdPiPdddPc
_Z9writedbl_PdyP6_iobuf
_Z9writeint_PiyP6_iobuf
_ZGVN6neuron6config9argumentsE
_ZN10BAMechList8destructEPPS_
_ZN10BAMechListC1EPPS_
_ZN10BAMechListC2EPPS_
_ZN10BoxDismiss7executeEv
_ZN10BoxDismissC1EP17DismissableWindowP8osStringP5OcBoxP6Object
_ZN10BoxDismissC2EP17DismissableWindowP8osStringP5OcBoxP6Object
_ZN10BoxDismissD0Ev
_ZN10BoxDismissD1Ev
_ZN10BoxDismissD2Ev
_ZN10Checkpoint3outEv
_ZN10Checkpoint3xdrERP6Object
_ZN10Checkpoint3xdrERl
_ZN10Checkpoint8instanceEv
_ZN10CheckpointC1Ev
_ZN10CheckpointC2Ev
_ZN10CheckpointD0Ev
_ZN10CheckpointD1Ev
_ZN10CheckpointD2Ev
_ZN10ColorValue10make_glyphEv
_ZN10ColorValue8colormapEib
_ZN10ColorValue8colormapEiiii
_ZN10ColorValue9set_scaleEff
_ZN10ColorValueC1Ev
_ZN10ColorValueC2Ev
_ZN10ColorValueD0Ev
_ZN10ColorValueD1Ev
_ZN10ColorValueD2Ev
_ZN10CvMembListC1Ev
_ZN10CvMembListC2Ev
_ZN10CvMembListD0Ev
_ZN10CvMembListD1Ev
_ZN10CvMembListD2Ev
_ZN10EPSPrinter10eps_prologERSoffPKc
_ZN10EPSPrinterC1EPSo
_ZN10EPSPrinterC2EPSo
_ZN10EPSPrinterD0Ev
_ZN10EPSPrinterD1Ev
_ZN10EPSPrinterD2Ev
_ZN10HocCommand11exec_strretEPcib
_ZN10HocCommand4helpEv
_ZN10HocCommand4initEPKcP6Object
_ZN10HocCommand4nameEv
_ZN10HocCommand5auditEv
_ZN10HocCommand6updateEP12ivObservable
_ZN10HocCommand7executeEPKcb
_ZN10HocCommand7executeEb
_ZN10HocCommand9func_callEiPi
_ZN10HocCommandC1EP6Object
_ZN10HocCommandC1EPKc
_ZN10HocCommandC1EPKcP6Object
_ZN10HocCommandC2EP6Object
_ZN10HocCommandC2EPKc
_ZN10HocCommandC2EPKcP6Object
_ZN10HocCommandD0Ev
_ZN10HocCommandD1Ev
_ZN10HocCommandD2Ev
_ZN10LinePicker5pressER7ivEvent
_ZN10LinePicker6commonEv
_ZN10LinePicker7releaseER7ivEvent
_ZN10LinePickerC1EP9GPolyLine
_ZN10LinePickerC2EP9GPolyLine
_ZN10LinePickerD0Ev
_ZN10LinePickerD1Ev
_ZN10LinePickerD2Ev
_ZN10MFKitFrame4pickEP8ivCanvasRK12ivAllocationiR5ivHit
_ZN10MFKitFrameC1EP7ivGlyphP15ivTelltaleStateP9MFKitInfofbb
_ZN10MFKitFrameC2EP7ivGlyphP15ivTelltaleStateP9MFKitInfofbb
_ZN10MFKitFrameD0Ev
_ZN10MFKitFrameD1Ev
_ZN10MFKitFrameD2Ev
_ZN10MWcanvas1610beginPaintEP5HDC__RK7tagRECT
_ZN10MWcanvas1610close_pathEv
_ZN10MWcanvas1611transformerERK13ivTransformer
_ZN10MWcanvas1612pop_clippingEv
_ZN10MWcanvas1613pop_transformEv
_ZN10MWcanvas1613push_clippingEb
_ZN10MWcanvas1614push_transformEv
_ZN10MWcanvas164clipEv
_ZN10MWcanvas164fillEPK7ivColor
_ZN10MWcanvas164fontEPK6ivFont
_ZN10MWcanvas165brushEPK7ivBrush
_ZN10MWcanvas165colorEPK7ivColor
_ZN10MWcanvas165flushEv
_ZN10MWcanvas165imageEPK8ivRasterff
_ZN10MWcanvas165path_E
_ZN10MWcanvas166strokeEPK7ivColorPK7ivBrush
_ZN10MWcanvas167line_toEff
_ZN10MWcanvas167move_toEff
_ZN10MWcanvas167stencilEPK8ivBitmapPK7ivColorff
_ZN10MWcanvas168curve_toEffffff
_ZN10MWcanvas168endPaintEv
_ZN10MWcanvas168new_pathEv
_ZN10MWcanvas169characterEPK6ivFontlfPK7ivColorff
_ZN10MWcanvas169transformERK13ivTransformer
_ZN10MWcanvas16C1Ev
_ZN10MWcanvas16C2Ev
_ZN10MWcanvas16D0Ev
_ZN10MWcanvas16D1Ev
_ZN10MWcanvas16D2Ev
_ZN10MWclipList10remove_allEv
_ZN10MWclipList6insertElRKP6HRGN__
_ZN10MWclipList6removeEl
_ZN10MWclipListC1El
_ZN10MWclipListC2El
_ZN10MWclipListD1Ev
_ZN10MWclipListD2Ev
_ZN10MacPrinter10close_pathEv
_ZN10MacPrinter11transformerERK13ivTransformer
_ZN10MacPrinter12pop_clippingEv
_ZN10MacPrinter13pop_transformEv
_ZN10MacPrinter13push_clippingEb
_ZN10MacPrinter14push_transformEv
_ZN10MacPrinter3getEv
_ZN10MacPrinter4clipEv
_ZN10MacPrinter4fillEPK7ivColor
_ZN10MacPrinter4pageEPKc
_ZN10MacPrinter5imageEPK8ivRasterff
_ZN10MacPrinter5setupEb
_ZN10MacPrinter6epilogEv
_ZN10MacPrinter6prologEPKc
_ZN10MacPrinter6prologEf
_ZN10MacPrinter6resizeEffff
_ZN10MacPrinter6strokeEPK7ivColorPK7ivBrush
_ZN10MacPrinter7commentEPKc
_ZN10MacPrinter7line_toEff
_ZN10MacPrinter7move_toEff
_ZN10MacPrinter7stencilEPK8ivBitmapPK7ivColorff
_ZN10MacPrinter8curve_toEffffff
_ZN10MacPrinter8new_pathEv
_ZN10MacPrinter9characterEPK6ivFontlfPK7ivColorff
_ZN10MacPrinter9transformERK13ivTransformer
_ZN10MacPrinterC1EPSo
_ZN10MacPrinterC2EPSo
_ZN10MacPrinterD0Ev
_ZN10MacPrinterD1Ev
_ZN10MacPrinterD2Ev
_ZN10NetConList6insertElP6NetCon
_ZN10NetConSave12index2netconEl
_ZN10NetConSave13weight2netconEPd
_ZN10NetConSave15savestate_writeEP6_iobuf
_ZN10NetConSave17savestate_restoreEdP8NetCvode
_ZN10NetConSave7invalidEv
_ZN10NetConSave7wtable_E
_ZN10NetConSave9idxtable_E
_ZN10NetConSaveC1EP6NetCon
_ZN10NetConSaveC2EP6NetCon
_ZN10NetConSaveD0Ev
_ZN10NetConSaveD1Ev
_ZN10NetConSaveD2Ev
_ZN10PWMDismiss7executeEv
_ZN10PWMDismissC1EP17DismissableWindow
_ZN10PWMDismissC2EP17DismissableWindow
_ZN10PWMDismissD0Ev
_ZN10PWMDismissD1Ev
_ZN10PWMDismissD2Ev
_ZN10PaperSceneC1EffffP7ivGlyph
_ZN10PaperSceneC2EffffP7ivGlyph
_ZN10PaperSceneD0Ev
_ZN10PaperSceneD1Ev
_ZN10PlayRecord10continuousEd
_ZN10PlayRecord10disconnectEP12ivObservable
_ZN10PlayRecord10record_addEP5Cvode
_ZN10PlayRecord10update_ptrEPd
_ZN10PlayRecord11record_initEv
_ZN10PlayRecord12frecord_initEP6TQItem
_ZN10PlayRecord14savestate_readEP6_iobuf
_ZN10PlayRecord14savestate_saveEv
_ZN10PlayRecord2prEv
_ZN10PlayRecord4typeEv
_ZN10PlayRecord4usesEPv
_ZN10PlayRecord5eventEv
_ZN10PlayRecord6updateEP12ivObservable
_ZN10PlayRecord7deliverEdP8NetCvode
_ZN10PlayRecord7installEP5Cvode
_ZN10PlayRecord8play_addEP5Cvode
_ZN10PlayRecord9play_initEv
_ZN10PlayRecordC1EPdP6Object
_ZN10PlayRecordC2EPdP6Object
_ZN10PlayRecordD0Ev
_ZN10PlayRecordD1Ev
_ZN10PlayRecordD2Ev
_ZN10PreSynSave12hindx2presynEl
_ZN10PreSynSave15savestate_writeEP6_iobuf
_ZN10PreSynSave17savestate_restoreEdP8NetCvode
_ZN10PreSynSave7invalidEv
_ZN10PreSynSave9idxtable_E
_ZN10PreSynSaveC1EP6PreSyn
_ZN10PreSynSaveC2EP6PreSyn
_ZN10PreSynSaveD0Ev
_ZN10PreSynSaveD1Ev
_ZN10PreSynSaveD2Ev
_ZN10RandomPlay11list_removeEv
_ZN10RandomPlay4playEv
_ZN10RandomPlay6updateEP12ivObservable
_ZN10RandomPlayC1EP4RandPd
_ZN10RandomPlayC2EP4RandPd
_ZN10RandomPlayD0Ev
_ZN10RandomPlayD1Ev
_ZN10RandomPlayD2Ev
_ZN10RightArrowC1EPK7ivColor
_ZN10RightArrowC2EPK7ivColor
_ZN10RightArrowD0Ev
_ZN10RightArrowD1Ev
_ZN10RightArrowD2Ev
_ZN10Rotation3d13post_multiplyERS_
_ZN10Rotation3d6offsetEff
_ZN10Rotation3d6originEfff
_ZN10Rotation3d8identityEv
_ZN10Rotation3d8rotate_xEf
_ZN10Rotation3d8rotate_yEf
_ZN10Rotation3d8rotate_zEf
_ZN10Rotation3dC1Ev
_ZN10Rotation3dC2Ev
_ZN10Rotation3dD0Ev
_ZN10Rotation3dD1Ev
_ZN10Rotation3dD2Ev
_ZN10RubberLine4drawEff
_ZN10RubberLine4helpEv
_ZN10RubberLineC1EP12RubberActionP8ivCanvas
_ZN10RubberLineC2EP12RubberActionP8ivCanvas
_ZN10RubberLineD0Ev
_ZN10RubberLineD1Ev
_ZN10RubberLineD2Ev
_ZN10RubberRect4drawEff
_ZN10RubberRect4helpEv
_ZN10RubberRectC1EP12RubberActionP8ivCanvas
_ZN10RubberRectC2EP12RubberActionP8ivCanvas
_ZN10RubberRectD0Ev
_ZN10RubberRectD1Ev
_ZN10RubberRectD2Ev
_ZN10RubberTool7executeEv
_ZN10RubberToolC1EP8ivActionP10RubberbandP11ScenePickeri
_ZN10RubberToolC2EP8ivActionP10RubberbandP11ScenePickeri
_ZN10RubberToolD0Ev
_ZN10RubberToolD1Ev
_ZN10RubberToolD2Ev
_ZN10Rubberband10rubber_offEP8ivCanvas
_ZN10Rubberband10xor_color_E
_ZN10Rubberband4dragER7ivEvent
_ZN10Rubberband4drawEff
_ZN10Rubberband4helpEv
_ZN10Rubberband5brushEv
_ZN10Rubberband5colorEv
_ZN10Rubberband5eventER7ivEvent
_ZN10Rubberband5pressER7ivEvent
_ZN10Rubberband6brush_E
_ZN10Rubberband6canvasEP8ivCanvas
_ZN10Rubberband6undrawEff
_ZN10Rubberband7releaseER7ivEvent
_ZN10Rubberband8current_E
_ZN10Rubberband8snapshotEP9ivPrinter
_ZN10Rubberband9rubber_onEP8ivCanvas
_ZN10RubberbandC1EP12RubberActionP8ivCanvas
_ZN10RubberbandC2EP12RubberActionP8ivCanvas
_ZN10RubberbandD0Ev
_ZN10RubberbandD1Ev
_ZN10RubberbandD2Ev
_ZN10SMFKitInfo4loadEv
_ZN10SMFKitInfo6unloadEv
_ZN10SMFKitInfo6updateEv
_ZN10SMFKitInfoC1EP7ivStyle
_ZN10SMFKitInfoC2EP7ivStyle
_ZN10SMFKitInfoD0Ev
_ZN10SMFKitInfoD1Ev
_ZN10SMFKitInfoD2Ev
_ZN10SceneMover4helpEv
_ZN10SceneMover5eventER7ivEvent
_ZN10SceneMoverC1Ev
_ZN10SceneMoverC2Ev
_ZN10SceneMoverD0Ev
_ZN10SceneMoverD1Ev
_ZN10SceneMoverD2Ev
_ZN10ScreenItem4pickEP8ivCanvasRK12ivAllocationiR5ivHit
_ZN10ScreenItem7relabelEl
_ZN10ScreenItem8allocateEP8ivCanvasRK12ivAllocationR11ivExtension
_ZN10ScreenItemC1EP15PrintableWindow
_ZN10ScreenItemC2EP15PrintableWindow
_ZN10ScreenItemD0Ev
_ZN10ScreenItemD1Ev
_ZN10ScreenItemD2Ev
_ZN10ShapeScene10shape_typeEi
_ZN10ShapeScene11color_valueEv
_ZN10ShapeScene11save_phase2ERSo
_ZN10ShapeScene11transform3dEP10Rubberband
_ZN10ShapeScene12arc_selectedEv
_ZN10ShapeScene13shape_sectionEP7Section
_ZN10ShapeScene15section_handlerEP12ShapeSection
_ZN10ShapeScene15section_handlerEP14SectionHandler
_ZN10ShapeScene15section_handlerEv
_ZN10ShapeScene18current_draw_sceneEv
_ZN10ShapeScene18current_pick_sceneEv
_ZN10ShapeScene18shape_section_listEv
_ZN10ShapeScene4helpEv
_ZN10ShapeScene4nameEPKc
_ZN10ShapeScene4viewEP10Rubberband
_ZN10ShapeScene4viewEPf
_ZN10ShapeScene4viewEf
_ZN10ShapeScene5colorEP11SectionListPK7ivColor
_ZN10ShapeScene5colorEP7SectionPK7ivColor
_ZN10ShapeScene5colorEP7SectionS1_PK7ivColor
_ZN10ShapeScene5colorEPK7ivColor
_ZN10ShapeScene5flushEv
_ZN10ShapeScene5forceEv
_ZN10ShapeScene6rotateEffffff
_ZN10ShapeScene6rotateEv
_ZN10ShapeScene7nearestEff
_ZN10ShapeScene7observeEP11SectionList
_ZN10ShapeScene8colorsegEP7SectiondPK7ivColor
_ZN10ShapeScene8selectedEP12ShapeSectionff
_ZN10ShapeScene8selectedEv
_ZN10ShapeScene9erase_allEv
_ZN10ShapeSceneC1EP11SectionList
_ZN10ShapeSceneC2EP11SectionList
_ZN10ShapeSceneD0Ev
_ZN10ShapeSceneD1Ev
_ZN10ShapeSceneD2Ev
_ZN10SymChooser12selected_varEv
_ZN10SymChooser21selected_vector_countEv
_ZN10SymChooser6rereadEv
_ZN10SymChooser7dismissEb
_ZN10SymChooserC1EP12SymDirectoryP11ivWidgetKitP7ivStyleP16SymChooserActioni
_ZN10SymChooserC2EP12SymDirectoryP11ivWidgetKitP7ivStyleP16SymChooserActioni
_ZN10SymChooserD0Ev
_ZN10SymChooserD1Ev
_ZN10SymChooserD2Ev
_ZN10SymbolItem12whole_vectorEv
_ZN10SymbolItem9no_objectEv
_ZN10SymbolItemC1EP6Object
_ZN10SymbolItemC1EP6SymbolP10Objectdataii
_ZN10SymbolItemC1EPKci
_ZN10SymbolItemC2EP6Object
_ZN10SymbolItemC2EP6SymbolP10Objectdataii
_ZN10SymbolItemC2EPKci
_ZN10SymbolItemD1Ev
_ZN10SymbolItemD2Ev
_ZN10SymbolList6insertElP10SymbolItem
_ZN10TvecRecord10continuousEd
_ZN10TvecRecord10disconnectEP12ivObservable
_ZN10TvecRecord11record_initEv
_ZN10TvecRecord4typeEv
_ZN10TvecRecord4usesEPv
_ZN10TvecRecord7installEP5Cvode
_ZN10TvecRecordC1EP7SectionP8IvocVectP6Object
_ZN10TvecRecordC2EP7SectionP8IvocVectP6Object
_ZN10TvecRecordD0Ev
_ZN10TvecRecordD1Ev
_ZN10TvecRecordD2Ev
_ZN10ValEdLabel3ttsEP15ivTelltaleState
_ZN10ValEdLabel5stateEb
_ZN10ValEdLabel6color_E
_ZN10ValEdLabelC1EP7ivGlyph
_ZN10ValEdLabelC2EP7ivGlyph
_ZN10ValEdLabelD0Ev
_ZN10ValEdLabelD1Ev
_ZN10ValEdLabelD2Ev
_ZN10ViewWindow12reconfiguredEv
_ZN10ViewWindow6updateEP12ivObservable
_ZN10ViewWindowC1EP6XYViewPKc
_ZN10ViewWindowC2EP6XYViewPKc
_ZN10ViewWindowD0Ev
_ZN10ViewWindowD1Ev
_ZN10ViewWindowD2Ev
_ZN10WinDismiss10win_defer_E
_ZN10WinDismiss13dismiss_deferEv
_ZN10WinDismiss17win_defer_longer_E
_ZN10WinDismiss5eventER7ivEvent
_ZN10WinDismiss7executeEv
_ZN10WinDismissC1EP17DismissableWindow
_ZN10WinDismissC2EP17DismissableWindow
_ZN10WinDismissD0Ev
_ZN10WinDismissD1Ev
_ZN10WinDismissD2Ev
_ZN10YvecRecord10continuousEd
_ZN10YvecRecord10disconnectEP12ivObservable
_ZN10YvecRecord11record_initEv
_ZN10YvecRecord4typeEv
_ZN10YvecRecord4usesEPv
_ZN10YvecRecord7installEP5Cvode
_ZN10YvecRecordC1EPdP8IvocVectP6Object
_ZN10YvecRecordC2EPdP8IvocVectP6Object
_ZN10YvecRecordD0Ev
_ZN10YvecRecordD1Ev
_ZN10YvecRecordD2Ev
_ZN10ivColorRep10rgbToColorEPKc
_ZN10ivColorRep14defaultPaletteEv
_ZN10ivColorRep9nameToRGBEPKcS1_
_ZN10ivColorRepC1Eiii
_ZN10ivColorRepC2Eiii
_ZN10ivColorRepD1Ev
_ZN10ivColorRepD2Ev
_ZN10ivEventRep10setMessageEP8ivWindowjyx
_ZN10ivEventRep14handleCallbackER7ivEvent
_ZN10ivEventRep7keycodeEv
_ZN10ivMenuImpl11menu_cursorEv
_ZN10ivMenuImpl11save_cursorEP8ivCanvas
_ZN10ivMenuImpl12menu_cursor_E
_ZN10ivMenuImpl14restore_cursorEP8ivCanvas
_ZN10ivMenuImpl4grabEP6ivMenuRK7ivEvent
_ZN10ivMenuImpl6ungrabEP6ivMenuRK7ivEvent
_ZN10ivMenuItem4initEP7ivGlyphP15ivTelltaleState
_ZN10ivMenuItem4menuEP6ivMenuP8ivWindow
_ZN10ivMenuItem6actionEP8ivAction
_ZN10ivMenuItem6updateEP12ivObservable
_ZN10ivMenuItemC1EP7ivGlyphP15ivTelltaleState
_ZN10ivMenuItemC1EP7ivGlyphP15ivTelltaleStateP6ivMenuP8ivWindow
_ZN10ivMenuItemC1EP7ivGlyphP15ivTelltaleStateP8ivAction
_ZN10ivMenuItemC2EP7ivGlyphP15ivTelltaleState
_ZN10ivMenuItemC2EP7ivGlyphP15ivTelltaleStateP6ivMenuP8ivWindow
_ZN10ivMenuItemC2EP7ivGlyphP15ivTelltaleStateP8ivAction
_ZN10ivMenuItemD0Ev
_ZN10ivMenuItemD1Ev
_ZN10ivMenuItemD2Ev
_ZN10ivObserver10disconnectEP12ivObservable
_ZN10ivObserver6updateEP12ivObservable
_ZN10ivObserverC1Ev
_ZN10ivObserverC2Ev
_ZN10ivObserverD0Ev
_ZN10ivObserverD1Ev
_ZN10ivObserverD2Ev
_ZN10ivResource14unref_deferredEPKS_
_ZN10ivResource3refEPKS_
_ZN10ivResource5deferEb
_ZN10ivResource5flushEv
_ZN10ivResource5unrefEPKS_
_ZN10ivResource7cleanupEv
_ZN10ivResourceC1Ev
_ZN10ivResourceC2Ev
_ZN10ivResourceD0Ev
_ZN10ivResourceD1Ev
_ZN10ivResourceD2Ev
_ZN10ivStyleRep10clear_infoEv
_ZN10ivStyleRep10find_entryERK14osUniqueString
_ZN10ivStyleRep10match_nameERK14osUniqueString
_ZN10ivStyleRep10parse_nameER8osStringRi
_ZN10ivStyleRep11delete_pathEP16UniqueStringList
_ZN10ivStyleRep11parse_valueERK8osString
_ZN10ivStyleRep12finish_matchERK9StyleListlRK16UniqueStringListl
_ZN10ivStyleRep13add_attributeERK8osStringS2_i
_ZN10ivStyleRep13missing_colonERK8osString
_ZN10ivStyleRep14find_separatorERK8osString
_ZN10ivStyleRep14wildcard_matchERK24StyleAttributeTableEntryRK9StyleListR8osString
_ZN10ivStyleRep16delete_attributeEP14StyleAttribute
_ZN10ivStyleRep17bad_property_nameERK8osString
_ZN10ivStyleRep18bad_property_valueERK8osString
_ZN10ivStyleRep19wildcard_match_nameERK14osUniqueStringRK24StyleAttributeTableEntryRK9StyleListlR8osString
_ZN10ivStyleRep5stripERK8osString
_ZN10ivStyleRep6modifyEv
_ZN10ivStyleRep6updateEv
_ZN10ivStyleRep9same_pathERK16UniqueStringListS2_
_ZN10ivStyleRepC1EP14osUniqueString
_ZN10ivStyleRepC2EP14osUniqueString
_ZN10ivStyleRepD1Ev
_ZN10ivStyleRepD2Ev
_ZN10ivTelltale10disconnectEP12ivObservable
_ZN10ivTelltale5stateEP15ivTelltaleState
_ZN10ivTelltaleC1EP7ivGlyphP15ivTelltaleState
_ZN10ivTelltaleC2EP7ivGlyphP15ivTelltaleState
_ZN10ivTelltaleD0Ev
_ZN10ivTelltaleD1Ev
_ZN10ivTelltaleD2Ev
_ZN10ivXYSlider10disconnectEP12ivObservable
_ZN10ivXYSlider14allocate_thumbERK12ivAllocation
_ZN10ivXYSlider16apply_adjustmentEM12ivAdjustableFvjE
_ZN10ivXYSlider7move_toEff
_ZN10ivXYSliderC1EP7ivStyleP12ivAdjustableS3_
_ZN10ivXYSliderC2EP7ivStyleP12ivAdjustableS3_
_ZN10ivXYSliderD0Ev
_ZN10ivXYSliderD1Ev
_ZN10ivXYSliderD2Ev
_ZN10osFileInfoC1EP12osCopyStringi
_ZN10osFileInfoC2EP12osCopyStringi
_ZN10osStdInput4readERPKc
_ZN10osStdInputC1Ev
_ZN10osStdInputC2Ev
_ZN10osStdInputD0Ev
_ZN10osStdInputD1Ev
_ZN10osStdInputD2Ev
_ZN11BBSaveState10buffer2gidEiPci
_ZN11BBSaveState10gid2bufferEiPci
_ZN11BBSaveState10netrecv_ppEP13Point_process
_ZN11BBSaveState11seccontentsEP7Section
_ZN11BBSaveState11sectionsizeEP7Section
_ZN11BBSaveState13mk_base2spgidEv
_ZN11BBSaveState14mk_presyn_infoEv
_ZN11BBSaveState15possible_presynEi
_ZN11BBSaveState18section_exist_infoEP7Section
_ZN11BBSaveState4cellEP6Object
_ZN11BBSaveState4coreEv
_ZN11BBSaveState4gidsEv
_ZN11BBSaveState4initEv
_ZN11BBSaveState4mechEP4Prop
_ZN11BBSaveState4nodeEP4Node
_ZN11BBSaveState5applyEP7BBSS_IO
_ZN11BBSaveState6countsEPPiS1_
_ZN11BBSaveState6finishEv
_ZN11BBSaveState6gidobjEi
_ZN11BBSaveState6gidobjEiP6Object
_ZN11BBSaveState6node01EP7SectionP4Node
_ZN11BBSaveState7sectionEP7Section
_ZN11BBSaveState8cellsizeEP6Object
_ZN11BBSaveState8mk_pp2deEv
_ZN11BBSaveState9del_pp2deEv
_ZN11BBSaveStateC1Ev
_ZN11BBSaveStateC2Ev
_ZN11BBSaveStateD0Ev
_ZN11BBSaveStateD1Ev
_ZN11BBSaveStateD2Ev
_ZN11FieldDialog21field_dialog_instanceEPKcP7ivStyleP7ivGlyph
_ZN11FieldDialog3runEv
_ZN11FieldDialog6acceptEP13ivFieldEditor
_ZN11FieldDialog6cancelEP13ivFieldEditor
_ZN11FieldDialog7dismissEb
_ZN11FieldDialog9keystrokeERK7ivEvent
_ZN11FieldDialogC1EP7ivGlyphP7ivStyle
_ZN11FieldDialogC2EP7ivGlyphP7ivStyle
_ZN11FieldDialogD0Ev
_ZN11FieldDialogD1Ev
_ZN11FieldDialogD2Ev
_ZN11GLineRecord10continuousEd
_ZN11GLineRecord11hoc_installEP5Cvode
_ZN11GLineRecord11record_initEv
_ZN11GLineRecord4plotEid
_ZN11GLineRecord4typeEv
_ZN11GLineRecord4usesEPv
_ZN11GLineRecord7fill_pdEv
_ZN11GLineRecord8fill_pd1Ev
_ZN11GLineRecordC1EP9GraphLine
_ZN11GLineRecordC2EP9GraphLine
_ZN11GLineRecordD0Ev
_ZN11GLineRecordD1Ev
_ZN11GLineRecordD2Ev
_ZN11GrGlyphItem8allocateEP8ivCanvasRK12ivAllocationR11ivExtension
_ZN11GrGlyphItemC1EP7ivGlyphfff
_ZN11GrGlyphItemC2EP7ivGlyphfff
_ZN11GrGlyphItemD0Ev
_ZN11GrGlyphItemD1Ev
_ZN11GrGlyphItemD2Ev
_ZN11GraphVector10choose_symEP5Graph
_ZN11GraphVector11update_ptrsEv
_ZN11GraphVector14record_installEv
_ZN11GraphVector16record_uninstallEv
_ZN11GraphVector3addEfPd
_ZN11GraphVector4saveERSo
_ZN11GraphVector5beginEv
_ZN11GraphVector6updateEP12ivObservable
_ZN11GraphVectorC1EPKcPK7ivColorPK7ivBrush
_ZN11GraphVectorC2EPKcPK7ivColorPK7ivBrush
_ZN11GraphVectorD0Ev
_ZN11GraphVectorD1Ev
_ZN11GraphVectorD2Ev
_ZN11HandleStdin10inputReadyEi
_ZN11HandleStdin15exceptionRaisedEi
_ZN11HandleStdinC1Ev
_ZN11HandleStdinC2Ev
_ZN11HandleStdinD0Ev
_ZN11HandleStdinD1Ev
_ZN11HandlerList6insertElP13ButtonHandler
_ZN11HandlerTool7executeEv
_ZN11HandlerToolC1EP9OcHandlerP11ScenePickeri
_ZN11HandlerToolC2EP9OcHandlerP11ScenePickeri
_ZN11HandlerToolD0Ev
_ZN11HandlerToolD1Ev
_ZN11HandlerToolD2Ev
_ZN11HocItemList6insertElP7HocItem
_ZN11HocMenuList6insertElP7HocMenu
_ZN11HocVarLabel13check_pointerEPvi
_ZN11HocVarLabel15update_hoc_itemEv
_ZN11HocVarLabel5writeERSo
_ZN11HocVarLabel9data_pathEP12HocDataPathsb
_ZN11HocVarLabelC1EPPcP11ivPolyGlyphP6Object
_ZN11HocVarLabelC2EPPcP11ivPolyGlyphP6Object
_ZN11HocVarLabelD0Ev
_ZN11HocVarLabelD1Ev
_ZN11HocVarLabelD2Ev
_ZN11IvocAliases6lookupEPKc
_ZN11IvocAliases6removeEP6Symbol
_ZN11IvocAliases7installEPKc
_ZN11IvocAliasesC1EP6Object
_ZN11IvocAliasesC2EP6Object
_ZN11IvocAliasesD0Ev
_ZN11IvocAliasesD1Ev
_ZN11IvocAliasesD2Ev
_ZN11KSChanBGinf1fEd
_ZN11KSChanBGinf4typeEv
_ZN11KSChanBGinfD0Ev
_ZN11KSChanBGinfD1Ev
_ZN11KSChanBGtau1fEd
_ZN11KSChanBGtau4typeEv
_ZN11KSChanBGtauD0Ev
_ZN11KSChanBGtauD1Ev
_ZN11KSChanConst1fEd
_ZN11KSChanConst4typeEv
_ZN11KSChanConstD0Ev
_ZN11KSChanConstD1Ev
_ZN11KSChanTable1fEd
_ZN11KSChanTable4typeEv
_ZN11KSChanTableC1EP8IvocVectdd
_ZN11KSChanTableC2EP8IvocVectdd
_ZN11KSChanTableD0Ev
_ZN11KSChanTableD1Ev
_ZN11KSIvNonSpec3curEdPdP5Datumd
_ZN11KSIvNonSpec5jacobEPdP5Datumd
_ZN11KSIvNonSpecD0Ev
_ZN11KSIvNonSpecD1Ev
_ZN11LayoutLayer4pickEP8ivCanvasRK12ivAllocationiR5ivHit
_ZN11LayoutLayer6undrawEv
_ZN11LayoutLayer8allocateEP8ivCanvasRK12ivAllocationR11ivExtension
_ZN11LayoutLayerC1EP7ivGlyphS1_S1_
_ZN11LayoutLayerC2EP7ivGlyphS1_S1_
_ZN11LayoutLayerD0Ev
_ZN11LayoutLayerD1Ev
_ZN11LayoutLayerD2Ev
_ZN11MechVarType12state_selectEv
_ZN11MechVarType15assigned_selectEv
_ZN11MechVarType16parameter_selectEv
_ZN11MechVarType6selectEi
_ZN11MechVarTypeC1Ev
_ZN11MechVarTypeC2Ev
_ZN11MechVarTypeD0Ev
_ZN11MechVarTypeD1Ev
_ZN11MechVarTypeD2Ev
_ZN11MessageItemC1Ev
_ZN11MessageItemC2Ev
_ZN11MessageItemD0Ev
_ZN11MessageItemD1Ev
_ZN11MessageItemD2Ev
_ZN11MpiWorkItemC1EiP9bbsmpibufi
_ZN11MpiWorkItemC2EiP9bbsmpibufi
_ZN11MpiWorkItemD0Ev
_ZN11MpiWorkItemD1Ev
_ZN11MpiWorkItemD2Ev
_ZN11NetParEvent13pgvts_deliverEdP8NetCvode
_ZN11NetParEvent14savestate_readEP6_iobuf
_ZN11NetParEvent14savestate_saveEv
_ZN11NetParEvent15savestate_writeEP6_iobuf
_ZN11NetParEvent17savestate_restoreEdP8NetCvode
_ZN11NetParEvent2prEPKcdP8NetCvode
_ZN11NetParEvent4sendEdP8NetCvodeP9NrnThread
_ZN11NetParEvent4typeEv
_ZN11NetParEvent7deliverEdP8NetCvodeP9NrnThread
_ZN11NetParEvent8pgvts_opERi
_ZN11NetParEventC1Ev
_ZN11NetParEventC2Ev
_ZN11NetParEventD0Ev
_ZN11NetParEventD1Ev
_ZN11NetParEventD2Ev
_ZN11NrnProperty10deleteableEv
_ZN11NrnProperty3varEi
_ZN11NrnProperty4findEPKc
_ZN11NrnProperty6assignEP4PropS1_i
_ZN11NrnProperty8more_varEv
_ZN11NrnProperty8next_varEv
_ZN11NrnProperty9first_varEv
_ZN11NrnPropertyC1EP4Prop
_ZN11NrnPropertyC1EPKc
_ZN11NrnPropertyC2EP4Prop
_ZN11NrnPropertyC2EPKc
_ZN11NrnPropertyD0Ev
_ZN11NrnPropertyD1Ev
_ZN11NrnPropertyD2Ev
_ZN11OcPtrVector10ptr_updateEv
_ZN11OcPtrVector14ptr_update_cmdEP10HocCommand
_ZN11OcPtrVector4psetEiPd
_ZN11OcPtrVector6gatherEPdi
_ZN11OcPtrVector6getvalEi
_ZN11OcPtrVector6resizeEi
_ZN11OcPtrVector6setvalEid
_ZN11OcPtrVector7scatterEPdi
_ZN11OcPtrVectorC1Ei
_ZN11OcPtrVectorC2Ei
_ZN11OcPtrVectorD0Ev
_ZN11OcPtrVectorD1Ev
_ZN11OcPtrVectorD2Ev
_ZN11OcViewGlyph4saveERSo
_ZN11OcViewGlyph8viewmenuEP7ivGlyph
_ZN11OcViewGlyphC1EP6XYView
_ZN11OcViewGlyphC2EP6XYView
_ZN11OcViewGlyphD0Ev
_ZN11OcViewGlyphD1Ev
_ZN11OcViewGlyphD2Ev
_ZN11PlayRecList6insertElP10PlayRecord
_ZN11RadioSelect7executeEv
_ZN11RadioSelectC1EPKcP8ivActionP5Scene
_ZN11RadioSelectC2EPKcP8ivActionP5Scene
_ZN11RadioSelectD0Ev
_ZN11RadioSelectD1Ev
_ZN11RadioSelectD2Ev
_ZN11ReducedTree5nocapEv
_ZN11ReducedTree5solveEv
_ZN11ReducedTree6gatherEv
_ZN11ReducedTree6pr_mapEiPd
_ZN11ReducedTree7reorderEiiPiS0_S0_
_ZN11ReducedTree7scatterEv
_ZN11ReducedTree8fillrmapEiiPd
_ZN11ReducedTree8fillsmapEiPdS0_
_ZN11ReducedTreeC1EP17MultiSplitControlii
_ZN11ReducedTreeC2EP17MultiSplitControlii
_ZN11ReducedTreeD0Ev
_ZN11ReducedTreeD1Ev
_ZN11ReducedTreeD2Ev
_ZN11Rotate3Band4dragER7ivEvent
_ZN11Rotate3Band4drawEff
_ZN11Rotate3Band4helpEv
_ZN11Rotate3Band5eventER7ivEvent
_ZN11Rotate3Band5pressER7ivEvent
_ZN11Rotate3Band8rotationEv
_ZN11Rotate3BandC1EP10Rotation3dP12RubberActionP8ivCanvas
_ZN11Rotate3BandC2EP10Rotation3dP12RubberActionP8ivCanvas
_ZN11Rotate3BandD0Ev
_ZN11Rotate3BandD1Ev
_ZN11Rotate3BandD2Ev
_ZN11SMFKitFrameC1EP7ivGlyphP15ivTelltaleStateP10SMFKitInfofffbb
_ZN11SMFKitFrameC2EP7ivGlyphP15ivTelltaleStateP10SMFKitInfofffbb
_ZN11SMFKitFrameD0Ev
_ZN11SMFKitFrameD1Ev
_ZN11SMFKitFrameD2Ev
_ZN11SMFKitGlyph8allocateEP8ivCanvasRK12ivAllocationR11ivExtension
_ZN11SMFKitGlyphC1EP10SMFKitInfo
_ZN11SMFKitGlyphC2EP10SMFKitInfo
_ZN11SMFKitGlyphD0Ev
_ZN11SMFKitGlyphD1Ev
_ZN11SMFKitGlyphD2Ev
_ZN11SMFKitThumbC1EjP10SMFKitInfolj
_ZN11SMFKitThumbC2EjP10SMFKitInfolj
_ZN11SMFKitThumbD0Ev
_ZN11SMFKitThumbD1Ev
_ZN11SMFKitThumbD2Ev
_ZN11ScenePicker11insert_itemEPKcS1_P10ivMenuItem
_ZN11ScenePicker11last_windowEv
_ZN11ScenePicker11remove_itemEPKc
_ZN11ScenePicker11select_nameEPKc
_ZN11ScenePicker11select_nameEv
_ZN11ScenePicker12radio_buttonEPKcP10RubberbandP8ivActioni
_ZN11ScenePicker12radio_buttonEPKcP8ivAction
_ZN11ScenePicker14add_radio_menuEPKcP10RubberbandP8ivActioniP6ivMenu
_ZN11ScenePicker14add_radio_menuEPKcP8ivActionP6ivMenu
_ZN11ScenePicker14add_radio_menuEPKcP9OcHandleriP6ivMenu
_ZN11ScenePicker14set_scene_toolEi
_ZN11ScenePicker14telltale_groupEv
_ZN11ScenePicker4helpEv
_ZN11ScenePicker8add_menuEP10ivMenuItemP6ivMenu
_ZN11ScenePicker8add_menuEPKcP10ivMenuItemP6ivMenu
_ZN11ScenePicker8add_menuEPKcP8ivActionP6ivMenu
_ZN11ScenePicker9exec_itemEPKc
_ZN11ScenePicker9pick_menuEP7ivGlyphiR5ivHit
_ZN11ScenePickerC1EP5Scene
_ZN11ScenePickerC2EP5Scene
_ZN11ScenePickerD0Ev
_ZN11ScenePickerD1Ev
_ZN11ScenePickerD2Ev
_ZN11ScreenScene4pickEP8ivCanvasRK12ivAllocationiR5ivHit
_ZN11ScreenSceneC1EffffP7ivGlyph
_ZN11ScreenSceneC2EffffP7ivGlyph
_ZN11ScreenSceneD0Ev
_ZN11ScreenSceneD1Ev
_ZN11SectionList10nrn_objectEv
_ZN11SectionList4nextEv
_ZN11SectionList5beginEv
_ZN11SectionListC1EP6Object
_ZN11SectionListC2EP6Object
_ZN11SectionListD0Ev
_ZN11SectionListD1Ev
_ZN11SectionListD2Ev
_ZN11StepperMenu5eventER7ivEvent
_ZN11StepperMenuC1Ev
_ZN11StepperMenuC2Ev
_ZN11StepperMenuD0Ev
_ZN11StepperMenuD1Ev
_ZN11StepperMenuD2Ev
_ZN11TextHandler5eventER7ivEvent
_ZN11TextHandlerC1EP8iv3_Text
_ZN11TextHandlerC2EP8iv3_Text
_ZN11TextHandlerD0Ev
_ZN11TextHandlerD1Ev
_ZN11TrayDismiss7executeEv
_ZN11TrayDismissC1EP17DismissableWindow
_ZN11TrayDismissC2EP17DismissableWindow
_ZN11TrayDismissD0Ev
_ZN11TrayDismissD1Ev
_ZN11TrayDismissD2Ev
_ZN11ValueStringC1EPci
_ZN11ValueStringC2EPci
_ZN11ValueStringD0Ev
_ZN11ValueStringD1Ev
_ZN11ValueStringD2Ev
_ZN11VecPlayStep10disconnectEP12ivObservable
_ZN11VecPlayStep14savestate_saveEv
_ZN11VecPlayStep2prEv
_ZN11VecPlayStep4initEP8IvocVectS1_d
_ZN11VecPlayStep4typeEv
_ZN11VecPlayStep4usesEPv
_ZN11VecPlayStep5eventEv
_ZN11VecPlayStep7deliverEdP8NetCvode
_ZN11VecPlayStep7installEP5Cvode
_ZN11VecPlayStep9play_initEv
_ZN11VecPlayStepC1EPKcP8IvocVectS3_dP6Object
_ZN11VecPlayStepC1EPdP8IvocVectS2_dP6Object
_ZN11VecPlayStepC2EPKcP8IvocVectS3_dP6Object
_ZN11VecPlayStepC2EPdP8IvocVectS2_dP6Object
_ZN11VecPlayStepD0Ev
_ZN11VecPlayStepD1Ev
_ZN11VecPlayStepD2Ev
_ZN11VecRecordDt10disconnectEP12ivObservable
_ZN11VecRecordDt11record_initEv
_ZN11VecRecordDt12frecord_initEP6TQItem
_ZN11VecRecordDt14savestate_saveEv
_ZN11VecRecordDt4typeEv
_ZN11VecRecordDt4usesEPv
_ZN11VecRecordDt5eventEv
_ZN11VecRecordDt7deliverEdP8NetCvode
_ZN11VecRecordDt7installEP5Cvode
_ZN11VecRecordDtC1EPdP8IvocVectdP6Object
_ZN11VecRecordDtC2EPdP8IvocVectdP6Object
_ZN11VecRecordDtD0Ev
_ZN11VecRecordDtD1Ev
_ZN11VecRecordDtD2Ev
_ZN11dpIOHandler10inputReadyEi
_ZN11dpIOHandler11childStatusExi
_ZN11dpIOHandler11outputReadyEi
_ZN11dpIOHandler12timerExpiredEll
_ZN11dpIOHandler15exceptionRaisedEi
_ZN11dpIOHandlerC1Ev
_ZN11dpIOHandlerC2Ev
_ZN11dpIOHandlerD0Ev
_ZN11dpIOHandlerD1Ev
_ZN11dpIOHandlerD2Ev
_ZN11ivBitmapRep4LoadEPKc
_ZN11ivBitmapRep4pokeEbii
_ZN11ivBitmapRep8SyncSizeEv
_ZN11ivBitmapRepC1EPKvjjii
_ZN11ivBitmapRepC1ERKS_
_ZN11ivBitmapRepC1Ev
_ZN11ivBitmapRepC2EPKvjjii
_ZN11ivBitmapRepC2ERKS_
_ZN11ivBitmapRepC2Ev
_ZN11ivBitmapRepD1Ev
_ZN11ivBitmapRepD2Ev
_ZN11ivCursorRepC1EPKc
_ZN11ivCursorRepC1ER11ivBitmapRepS1_
_ZN11ivCursorRepC1Ei
_ZN11ivCursorRepC1EssPKiS1_
_ZN11ivCursorRepC2EPKc
_ZN11ivCursorRepC2ER11ivBitmapRepS1_
_ZN11ivCursorRepC2Ei
_ZN11ivCursorRepC2EssPKiS1_
_ZN11ivCursorRepD1Ev
_ZN11ivCursorRepD2Ev
_ZN11ivDialogKit8instanceEv
_ZN11ivDialogKitC1Ev
_ZN11ivDialogKitC2Ev
_ZN11ivDialogKitD0Ev
_ZN11ivDialogKitD1Ev
_ZN11ivDialogKitD2Ev
_ZN11ivExtension12transform_xyEP8ivCanvasRfS2_S2_S2_
_ZN11ivExtension3setEP8ivCanvasRK12ivAllocation
_ZN11ivExtension5clearEv
_ZN11ivExtension5mergeEP8ivCanvasRK12ivAllocation
_ZN11ivExtension5mergeERKS_
_ZN11ivExtension6set_xyEP8ivCanvasffff
_ZN11ivExtension8merge_xyEP8ivCanvasffff
_ZN11ivExtensionC1ERKS_
_ZN11ivExtensionC1Ev
_ZN11ivExtensionC2ERKS_
_ZN11ivExtensionC2Ev
_ZN11ivExtensionaSERKS_
_ZN11ivLayoutKit8instanceEv
_ZN11ivLayoutKitC1Ev
_ZN11ivLayoutKitC2Ev
_ZN11ivLayoutKitD0Ev
_ZN11ivLayoutKitD1Ev
_ZN11ivLayoutKitD2Ev
_ZN11ivMFKitImpl10make_moverEP15ivTelltaleStatePFvP8ivCanvasPK7ivColorS6_S6_fffffE
_ZN11ivMFKitImpl11make_buttonEP15ivTelltaleStateP7ivGlyphS3_
_ZN11ivMFKitImpl11make_sliderEP8ivSlider
_ZN11ivMFKitImpl11make_toggleEP15ivTelltaleStatePFvP8ivCanvasPK7ivColorS6_S6_fffffEf
_ZN11ivMFKitImpl14make_menu_itemEP15ivTelltaleStateP7ivGlyphS3_
_ZN11ivMFKitImpl5matchERK7ivStyleS2_PKc
_ZN11ivMFKitImplC1EP7ivMFKit
_ZN11ivMFKitImplC2EP7ivMFKit
_ZN11ivMFKitImplD1Ev
_ZN11ivMFKitImplD2Ev
_ZN11ivMonoGlyph4bodyEP7ivGlyph
_ZN11ivMonoGlyph4pickEP8ivCanvasRK12ivAllocationiR5ivHit
_ZN11ivMonoGlyph6appendEP7ivGlyph
_ZN11ivMonoGlyph6changeEl
_ZN11ivMonoGlyph6insertElP7ivGlyph
_ZN11ivMonoGlyph6removeEl
_ZN11ivMonoGlyph6undrawEv
_ZN11ivMonoGlyph7prependEP7ivGlyph
_ZN11ivMonoGlyph7replaceElP7ivGlyph
_ZN11ivMonoGlyph8allocateEP8ivCanvasRK12ivAllocationR11ivExtension
_ZN11ivMonoGlyphC1EP7ivGlyph
_ZN11ivMonoGlyphC2EP7ivGlyph
_ZN11ivMonoGlyphD0Ev
_ZN11ivMonoGlyphD1Ev
_ZN11ivMonoGlyphD2Ev
_ZN11ivPlacement4pickEP8ivCanvasRK12ivAllocationiR5ivHit
_ZN11ivPlacement8allocateEP8ivCanvasRK12ivAllocationR11ivExtension
_ZN11ivPlacementC1EP7ivGlyphP8ivLayout
_ZN11ivPlacementC2EP7ivGlyphP8ivLayout
_ZN11ivPlacementD0Ev
_ZN11ivPlacementD1Ev
_ZN11ivPlacementD2Ev
_ZN11ivPolyGlyph6appendEP7ivGlyph
_ZN11ivPolyGlyph6changeEl
_ZN11ivPolyGlyph6insertElP7ivGlyph
_ZN11ivPolyGlyph6removeEl
_ZN11ivPolyGlyph6undrawEv
_ZN11ivPolyGlyph7prependEP7ivGlyph
_ZN11ivPolyGlyph7replaceElP7ivGlyph
_ZN11ivPolyGlyph8modifiedEl
_ZN11ivPolyGlyphC1El
_ZN11ivPolyGlyphC2El
_ZN11ivPolyGlyphD0Ev
_ZN11ivPolyGlyphD1Ev
_ZN11ivPolyGlyphD2Ev
_ZN11ivRasterRepC1EP5HDC__
_ZN11ivRasterRepC2EP5HDC__
_ZN11ivRasterRepD1Ev
_ZN11ivRasterRepD2Ev
_ZN11ivScrollBoxC1El
_ZN11ivScrollBoxC2El
_ZN11ivScrollBoxD0Ev
_ZN11ivScrollBoxD1Ev
_ZN11ivScrollBoxD2Ev
_ZN11ivSuperpose7requestElPK13ivRequisitionRS0_
_ZN11ivSuperpose8allocateERK12ivAllocationlPK13ivRequisitionPS0_
_ZN11ivSuperposeC1EP8ivLayoutS1_S1_S1_S1_
_ZN11ivSuperposeC2EP8ivLayoutS1_S1_S1_S1_
_ZN11ivSuperposeD0Ev
_ZN11ivSuperposeD1Ev
_ZN11ivSuperposeD2Ev
_ZN11ivWidgetKit10push_styleEP7ivStyle
_ZN11ivWidgetKit10push_styleEv
_ZN11ivWidgetKit11begin_styleEPKc
_ZN11ivWidgetKit11begin_styleEPKcS1_
_ZN11ivWidgetKit11begin_styleERK8osString
_ZN11ivWidgetKit11begin_styleERK8osStringS2_
_ZN11ivWidgetKit13style_changedEP7ivStyle
_ZN11ivWidgetKit5aliasEPKc
_ZN11ivWidgetKit5aliasERK8osString
_ZN11ivWidgetKit5styleEP7ivStyle
_ZN11ivWidgetKit8instanceEv
_ZN11ivWidgetKit9end_styleEv
_ZN11ivWidgetKit9pop_styleEv
_ZN11ivWidgetKitC1Ev
_ZN11ivWidgetKitC2Ev
_ZN11ivWidgetKitD0Ev
_ZN11ivWidgetKitD1Ev
_ZN11ivWidgetKitD2Ev
_ZN11ivWindowRep10backBufferEv
_ZN11ivWindowRep10childEventElR7ivEvent
_ZN11ivWindowRep10mainWindowEv
_ZN11ivWindowRep11frontBufferEv
_ZN11ivWindowRep12errorMessageEPKc
_ZN11ivWindowRep14childEventHWNDEP6HWND__R7ivEvent
_ZN11ivWindowRep15registerControlElP7MWchild
_ZN11ivWindowRep19registerControlHWNDEP6HWND__P7MWchild
_ZN11ivWindowRep4bindEv
_ZN11ivWindowRep6WMsizeEyx
_ZN11ivWindowRep7WMinputEyxii
_ZN11ivWindowRep7WMpaintEyx
_ZN11ivWindowRep7WndProcEjyx
_ZN11ivWindowRep8rebufferEv
_ZN11ivWindowRepC1EP8ivWindow
_ZN11ivWindowRepC2EP8ivWindow
_ZN11ivWindowRepD0Ev
_ZN11ivWindowRepD1Ev
_ZN11ivWindowRepD2Ev
_ZN11osDirectory4openERK8osString
_ZN11osDirectory5closeEv
_ZN11osDirectory5matchERK8osStringS2_
_ZN11osDirectory7currentEv
_ZN11osDirectory9canonicalERK8osString
_ZN11osDirectoryC1Ev
_ZN11osDirectoryC2Ev
_ZN11osDirectoryD0Ev
_ZN11osDirectoryD1Ev
_ZN11osDirectoryD2Ev
_ZN11osInputFile4openERK8osString
_ZN11osInputFile4readERPKc
_ZN11osInputFileC1EP10osFileInfo
_ZN11osInputFileC2EP10osFileInfo
_ZN11osInputFileD0Ev
_ZN11osInputFileD1Ev
_ZN11osInputFileD2Ev
_ZN12BoundedValue11lower_boundEf
_ZN12BoundedValue11scroll_incrEf
_ZN12BoundedValue11upper_boundEf
_ZN12BoundedValue12page_forwardEj
_ZN12BoundedValue13current_valueEf
_ZN12BoundedValue13page_backwardEj
_ZN12BoundedValue14scroll_forwardEj
_ZN12BoundedValue15scroll_backwardEj
_ZN12BoundedValue9page_incrEf
_ZN12BoundedValue9scroll_toEjf
_ZN12BoundedValueC1Eff
_ZN12BoundedValueC1Ev
_ZN12BoundedValueC2Eff
_ZN12BoundedValueC2Ev
_ZN12BoundedValueD0Ev
_ZN12BoundedValueD1Ev
_ZN12BoundedValueD2Ev
_ZN12BrushPalette5brushEiif
_ZN12BrushPaletteC1Ev
_ZN12BrushPaletteC2Ev
_ZN12BrushPaletteD0Ev
_ZN12BrushPaletteD1Ev
_ZN12BrushPaletteD2Ev
_ZN12ColorPalette5colorEiPK7ivColor
_ZN12ColorPalette5colorEiPKc
_ZN12ColorPaletteC1Ev
_ZN12ColorPaletteC2Ev
_ZN12ColorPaletteD0Ev
_ZN12ColorPaletteD1Ev
_ZN12ColorPaletteD2Ev
_ZN12DataPointers11update_ptrsEv
_ZN12DataPointers3addEPd
_ZN12DataPointersC1Ei
_ZN12DataPointersC2Ei
_ZN12DataPointersD0Ev
_ZN12DataPointersD1Ev
_ZN12DataPointersD2Ev
_ZN12DatumIndicesC1Ev
_ZN12DatumIndicesC2Ev
_ZN12DatumIndicesD0Ev
_ZN12DatumIndicesD1Ev
_ZN12DatumIndicesD2Ev
_ZN12DialogAction7executeEv
_ZN12DialogActionC1EP8ivDialogb
_ZN12DialogActionC2EP8ivDialogb
_ZN12DialogActionD0Ev
_ZN12DialogActionD1Ev
_ZN12DialogActionD2Ev
_ZN12ForwardPager6adjustEv
_ZN12ForwardPagerC1EP7ivGlyphP7ivStyleP15ivTelltaleStateP12ivAdjustablej
_ZN12ForwardPagerC2EP7ivGlyphP7ivStyleP15ivTelltaleStateP12ivAdjustablej
_ZN12ForwardPagerD0Ev
_ZN12ForwardPagerD1Ev
_ZN12ForwardPagerD2Ev
_ZN12HocDataPaths5styleEv
_ZN12HocDataPaths6appendEPPc
_ZN12HocDataPaths6appendEPd
_ZN12HocDataPaths6searchEv
_ZN12HocDataPathsC1Eii
_ZN12HocDataPathsC2Eii
_ZN12HocDataPathsD0Ev
_ZN12HocDataPathsD1Ev
_ZN12HocDataPathsD2Ev
_ZN12HocPanelList6insertElP8HocPanel
_ZN12HocValAction15setFieldSEditorEP12HocValEditor
_ZN12HocValAction6acceptEP13ivFieldEditor
_ZN12HocValAction7executeEv
_ZN12HocValActionC1EPKcP6Object
_ZN12HocValActionC2EPKcP6Object
_ZN12HocValActionD0Ev
_ZN12HocValActionD1Ev
_ZN12HocValActionD2Ev
_ZN12HocValEditor11exec_actionEv
_ZN12HocValEditor11updateFieldEv
_ZN12HocValEditor11update_ptrsEv
_ZN12HocValEditor13check_pointerEPvi
_ZN12HocValEditor13domain_limitsEd
_ZN12HocValEditor15update_hoc_itemEv
_ZN12HocValEditor22hoc_default_val_editorEv
_ZN12HocValEditor5auditEv
_ZN12HocValEditor5writeERSo
_ZN12HocValEditor7get_valEv
_ZN12HocValEditor7set_valEd
_ZN12HocValEditor7stepperEv
_ZN12HocValEditor9data_pathEP12HocDataPathsb
_ZN12HocValEditor9evalFieldEv
_ZN12HocValEditor9setlimitsEPf
_ZN12HocValEditorC1EPKcS1_P10ValEdLabelP12HocValActionPdbP7HocItemP6Object
_ZN12HocValEditorC2EPKcS1_P10ValEdLabelP12HocValActionPdbP7HocItemP6Object
_ZN12HocValEditorD0Ev
_ZN12HocValEditorD1Ev
_ZN12HocValEditorD2Ev
_ZN12KSChanLinoid1fEd
_ZN12KSChanLinoid4typeEv
_ZN12KSChanLinoidD0Ev
_ZN12KSChanLinoidD1Ev
_ZN12KSTransition13hh_table_makeEdidd
_ZN12KSTransition2abEP8IvocVectS1_S1_
_ZN12KSTransition2abEdRdS0_
_ZN12KSTransition4betaEv
_ZN12KSTransition4setfEiiP8IvocVectdd
_ZN12KSTransition5alphaEP5Datum
_ZN12KSTransition6inftauEP8IvocVectS1_S1_
_ZN12KSTransition6inftauEdRdS0_
_ZN12KSTransition6lig2pdEi
_ZN12KSTransitionC1Ev
_ZN12KSTransitionC2Ev
_ZN12KSTransitionD0Ev
_ZN12KSTransitionD1Ev
_ZN12KSTransitionD2Ev
_ZN12MWcolorTable15find_and_removeERmm
_ZN12MWcolorTable4findERmm
_ZN12MWcolorTable6insertEmm
_ZN12MWcolorTable6removeEm
_ZN12MWcolorTableC1Ei
_ZN12MWcolorTableC2Ei
_ZN12MWcolorTableD1Ev
_ZN12MWcolorTableD2Ev
_ZN12MakeTimePlot5eventER7ivEvent
_ZN12MakeTimePlotC1EP13ShapePlotImpl
_ZN12MakeTimePlotC2EP13ShapePlotImpl
_ZN12MakeTimePlotD0Ev
_ZN12MakeTimePlotD1Ev
_ZN12MakeTimePlotD2Ev
_ZN12MechSelector11is_selectedEi
_ZN12MechSelector4doneEv
_ZN12MechSelector4nextEv
_ZN12MechSelector5beginEv
_ZN12MechSelectorC1Ev
_ZN12MechSelectorC2Ev
_ZN12MechSelectorD0Ev
_ZN12MechSelectorD1Ev
_ZN12MechSelectorD2Ev
_ZN12MenuItemList6insertElP10ivMenuItem
_ZN12MessageValue11init_unpackEv
_ZN12MessageValue4linkEv
_ZN12MessageValue5pkintEi
_ZN12MessageValue5pkstrEPKc
_ZN12MessageValue5pkvecEiPd
_ZN12MessageValue6upkintEPi
_ZN12MessageValue6upkstrEPc
_ZN12MessageValue6upkvecEiPd
_ZN12MessageValue8pkdoubleEd
_ZN12MessageValue8pkpickleEPKcy
_ZN12MessageValue9upkdoubleEPd
_ZN12MessageValue9upkpickleEPcPy
_ZN12MessageValueC1Ev
_ZN12MessageValueC2Ev
_ZN12MessageValueD0Ev
_ZN12MessageValueD1Ev
_ZN12MessageValueD2Ev
_ZN12NPInsetFrameC1EP7ivGlyph
_ZN12NPInsetFrameC2EP7ivGlyph
_ZN12NPInsetFrameD0Ev
_ZN12NPInsetFrameD1Ev
_ZN12NPInsetFrameD2Ev
_ZN12NonLinImpRep3odeEiP9Memb_list
_ZN12NonLinImpRep4didsEv
_ZN12NonLinImpRep4didvEv
_ZN12NonLinImpRep4dsdsEv
_ZN12NonLinImpRep4dsdvEv
_ZN12NonLinImpRep5deltaEd
_ZN12NonLinImpRep7currentEiP9Memb_listi
_ZN12NonLinImpRep8gapsolveEv
_ZN12NonLinImpRepC1Ev
_ZN12NonLinImpRepC2Ev
_ZN12NonLinImpRepD0Ev
_ZN12NonLinImpRepD1Ev
_ZN12NonLinImpRepD2Ev
_ZN12NrnRandom1235resetEv
_ZN12NrnRandom1236asLongEv
_ZN12NrnRandom1238asDoubleEv
_ZN12NrnRandom123C1Ejjj
_ZN12NrnRandom123C2Ejjj
_ZN12NrnRandom123D0Ev
_ZN12NrnRandom123D1Ev
_ZN12NrnRandom123D2Ev
_ZN12OcCheckpoint10objectdataEP10Objectdata
_ZN12OcCheckpoint10sym_valuesEP6Symbol
_ZN12OcCheckpoint11hoc_symlistEP7Symlist
_ZN12OcCheckpoint14make_sym_tableEv
_ZN12OcCheckpoint16sym_instructionsEP6Symbol
_ZN12OcCheckpoint17sym_table_installEP6Symbol
_ZN12OcCheckpoint3xdrERP6Object
_ZN12OcCheckpoint3xdrERPci
_ZN12OcCheckpoint3xdrERd
_ZN12OcCheckpoint3xdrERi
_ZN12OcCheckpoint3xdrERj
_ZN12OcCheckpoint3xdrERl
_ZN12OcCheckpoint3xdrERm
_ZN12OcCheckpoint3xdrERs
_ZN12OcCheckpoint4funcEP6Symbol
_ZN12OcCheckpoint4procEP4Proc
_ZN12OcCheckpoint5datumEP5Datum
_ZN12OcCheckpoint5pass1Ev
_ZN12OcCheckpoint5pass2Ev
_ZN12OcCheckpoint5writeEPKc
_ZN12OcCheckpoint6objectEv
_ZN12OcCheckpoint6symbolEP6Symbol
_ZN12OcCheckpoint7objectsEP6Symbol
_ZN12OcCheckpoint7sym_outEP6Symbol
_ZN12OcCheckpoint8instlistEmP4Inst
_ZN12OcCheckpoint9arrayinfoEP6SymbolP10Objectdata
_ZN12OcCheckpoint9build_mapEv
_ZN12OcCheckpoint9ctemplateEP6Symbol
_ZN12OcCheckpoint9sym_countEP6Symbol
_ZN12OcCheckpointC1Ev
_ZN12OcCheckpointC2Ev
_ZN12OcCheckpointD0Ev
_ZN12OcCheckpointD1Ev
_ZN12OcCheckpointD2Ev
_ZN12OcFullMatrix3addEP8OcMatrixS1_
_ZN12OcFullMatrix3detEPi
_ZN12OcFullMatrix3expEP8OcMatrix
_ZN12OcFullMatrix3mepEii
_ZN12OcFullMatrix3powEiP8OcMatrix
_ZN12OcFullMatrix4copyEP8OcMatrix
_ZN12OcFullMatrix4mulmEP8OcMatrixS1_
_ZN12OcFullMatrix4mulsEdP8OcMatrix
_ZN12OcFullMatrix4mulvEP8IvocVectS1_
_ZN12OcFullMatrix4ncolEv
_ZN12OcFullMatrix4nrowEv
_ZN12OcFullMatrix4solvEP8IvocVectS1_b
_ZN12OcFullMatrix4svd1EP8OcMatrixS1_P8IvocVect
_ZN12OcFullMatrix4zeroEv
_ZN12OcFullMatrix5bcopyEP8OcMatrixiiiiii
_ZN12OcFullMatrix5identEv
_ZN12OcFullMatrix6getcolEiP8IvocVect
_ZN12OcFullMatrix6getrowEiP8IvocVect
_ZN12OcFullMatrix6getvalEii
_ZN12OcFullMatrix6resizeEii
_ZN12OcFullMatrix6setcolEiP8IvocVect
_ZN12OcFullMatrix6setcolEid
_ZN12OcFullMatrix6setrowEiP8IvocVect
_ZN12OcFullMatrix6setrowEid
_ZN12OcFullMatrix7getdiagEiP8IvocVect
_ZN12OcFullMatrix7inverseEP8OcMatrix
_ZN12OcFullMatrix7setdiagEiP8IvocVect
_ZN12OcFullMatrix7setdiagEid
_ZN12OcFullMatrix9symmeigenEP8OcMatrixP8IvocVect
_ZN12OcFullMatrix9transposeEP8OcMatrix
_ZN12OcFullMatrixC1Eii
_ZN12OcFullMatrixC2Eii
_ZN12OcFullMatrixD0Ev
_ZN12OcFullMatrixD1Ev
_ZN12OcFullMatrixD2Ev
_ZN12OcLabelGlyph4saveERSo
_ZN12OcLabelGlyphC1EPKcP7OcGlyphP7ivGlyph
_ZN12OcLabelGlyphC2EPKcP7OcGlyphP7ivGlyph
_ZN12OcLabelGlyphD0Ev
_ZN12OcLabelGlyphD1Ev
_ZN12OcLabelGlyphD2Ev
_ZN12OcReadChkPnt10objectdataEv
_ZN12OcReadChkPnt11hoc_symbolsEv
_ZN12OcReadChkPnt12instructionsEv
_ZN12OcReadChkPnt3getERP6Object
_ZN12OcReadChkPnt3getERPc
_ZN12OcReadChkPnt3getERd
_ZN12OcReadChkPnt3getERi
_ZN12OcReadChkPnt3getERl
_ZN12OcReadChkPnt4readEv
_ZN12OcReadChkPnt6symbolEv
_ZN12OcReadChkPnt7objectsEv
_ZN12OcReadChkPnt8symtableEv
_ZN12OcReadChkPnt9arrayinfoEP6SymbolP10Objectdata
_ZN12OcReadChkPntC1Ev
_ZN12OcReadChkPntC2Ev
_ZN12OcReadChkPntD0Ev
_ZN12OcReadChkPntD1Ev
_ZN12OcReadChkPntD2Ev
_ZN12RangeVarPlot10choose_symEP5Graph
_ZN12RangeVarPlot13fill_pointersEv
_ZN12RangeVarPlot4leftEv
_ZN12RangeVarPlot4listEP6Object
_ZN12RangeVarPlot4saveERSo
_ZN12RangeVarPlot5rightEv
_ZN12RangeVarPlot5set_xEv
_ZN12RangeVarPlot5x_endEfP7Section
_ZN12RangeVarPlot6d2rootEv
_ZN12RangeVarPlot6originEf
_ZN12RangeVarPlot6updateEP12ivObservable
_ZN12RangeVarPlot7computeEv
_ZN12RangeVarPlot7x_beginEfP7Section
_ZN12RangeVarPlot9get_colorEv
_ZN12RangeVarPlot9set_colorEi
_ZN12RangeVarPlotC1EPKcP6Object
_ZN12RangeVarPlotC2EPKcP6Object
_ZN12RangeVarPlotD0Ev
_ZN12RangeVarPlotD1Ev
_ZN12RangeVarPlotD2Ev
_ZN12ResourceImpl8deletes_E
_ZN12ResourceImpl9deferred_E
_ZN12ResourceList6insertElP10ivResource
_ZN12RubberAction4helpEv
_ZN12RubberAction7executeEP10Rubberband
_ZN12RubberActionC1Ev
_ZN12RubberActionC2Ev
_ZN12RubberActionD0Ev
_ZN12RubberActionD1Ev
_ZN12RubberActionD2Ev
_ZN12SPObjectName7executeEv
_ZN12SPObjectNameD0Ev
_ZN12SPObjectNameD1Ev
_ZN12STECondition13pgvts_deliverEdP8NetCvode
_ZN12STECondition5valueEv
_ZN12STECondition6threadEv
_ZN12STECondition7deliverEdP8NetCvodeP9NrnThread
_ZN12STEConditionC1EP13Point_processPFdS1_E
_ZN12STEConditionC2EP13Point_processPFdS1_E
_ZN12STEConditionD0Ev
_ZN12STEConditionD1Ev
_ZN12STEConditionD2Ev
_ZN12ShapeSection10selectMenuEv
_ZN12ShapeSection11setColorsegEPK7ivColordP10ShapeScene
_ZN12ShapeSection11transform3dEP10Rotation3d
_ZN12ShapeSection11update_ptrsEv
_ZN12ShapeSection14clear_variableEv
_ZN12ShapeSection18set_range_variableEP6Symbol
_ZN12ShapeSection3locEdRfS0_
_ZN12ShapeSection4pickEP8ivCanvasRK12ivAllocationiR5ivHit
_ZN12ShapeSection6damageEP10ShapeScene
_ZN12ShapeSection8allocateEP8ivCanvasRK12ivAllocationR11ivExtension
_ZN12ShapeSection8setColorEPK7ivColorP10ShapeScene
_ZN12ShapeSectionC1EP7Section
_ZN12ShapeSectionC2EP7Section
_ZN12ShapeSectionD0Ev
_ZN12ShapeSectionD1Ev
_ZN12ShapeSectionD2Ev
_ZN12SpecialPatch8allocateEP8ivCanvasRK12ivAllocationR11ivExtension
_ZN12SpecialPatchC1EP7ivGlyph
_ZN12SpecialPatchC2EP7ivGlyph
_ZN12SpecialPatchD0Ev
_ZN12SpecialPatchD1Ev
_ZN12SpecialPatchD2Ev
_ZN12SymDirectory12whole_vectorEi
_ZN12SymDirectory3objEi
_ZN12SymDirectory5matchERK8osStringS2_
_ZN12SymDirectory8variableEi
_ZN12SymDirectory9newsymdirEi
_ZN12SymDirectoryC1EP6Object
_ZN12SymDirectoryC1ERK8osStringP6ObjectP6Symbolii
_ZN12SymDirectoryC1Ei
_ZN12SymDirectoryC1Ev
_ZN12SymDirectoryC2EP6Object
_ZN12SymDirectoryC2ERK8osStringP6ObjectP6Symbolii
_ZN12SymDirectoryC2Ei
_ZN12SymDirectoryC2Ev
_ZN12SymDirectoryD0Ev
_ZN12SymDirectoryD1Ev
_ZN12SymDirectoryD2Ev
_ZN12__AnyPtrList10remove_allEv
_ZN12__AnyPtrList6insertElRKPv
_ZN12__AnyPtrList6removeEl
_ZN12__AnyPtrListC1El
_ZN12__AnyPtrListC2El
_ZN12__AnyPtrListD1Ev
_ZN12__AnyPtrListD2Ev
_ZN12iv3_TextLine5valueEv
_ZN12iv3_TextLine9keystrokeERK7ivEvent
_ZN12iv3_TextLineC1ERK8osStringj
_ZN12iv3_TextLineC1Ej
_ZN12iv3_TextLineC2ERK8osStringj
_ZN12iv3_TextLineC2Ej
_ZN12iv3_TextLineD0Ev
_ZN12iv3_TextLineD1Ev
_ZN12iv3_TextLineD2Ev
_ZN12ivAdjustable12large_scrollEjf
_ZN12ivAdjustable12page_forwardEj
_ZN12ivAdjustable12small_scrollEjf
_ZN12ivAdjustable13page_backwardEj
_ZN12ivAdjustable14scroll_forwardEj
_ZN12ivAdjustable15scroll_backwardEj
_ZN12ivAdjustable16abort_adjustmentEj
_ZN12ivAdjustable16begin_adjustmentEj
_ZN12ivAdjustable17commit_adjustmentEj
_ZN12ivAdjustable6attachEjP10ivObserver
_ZN12ivAdjustable6detachEjP10ivObserver
_ZN12ivAdjustable7zoom_toEf
_ZN12ivAdjustable8scale_toEjf
_ZN12ivAdjustable9scroll_toEjf
_ZN12ivAdjustableC1Ev
_ZN12ivAdjustableC2Ev
_ZN12ivAdjustableD0Ev
_ZN12ivAdjustableD1Ev
_ZN12ivAdjustableD2Ev
_ZN12ivAllocation5allotEjRK11ivAllotment
_ZN12ivAllocation9allotmentEj
_ZN12ivAllocationC1ERKS_
_ZN12ivAllocationC1Ev
_ZN12ivAllocationC2ERKS_
_ZN12ivAllocationC2Ev
_ZN12ivBackground8allocateEP8ivCanvasRK12ivAllocationR11ivExtension
_ZN12ivBackgroundC1EP7ivGlyphPK7ivColor
_ZN12ivBackgroundC2EP7ivGlyphPK7ivColor
_ZN12ivBackgroundD0Ev
_ZN12ivBackgroundD1Ev
_ZN12ivBackgroundD2Ev
_ZN12ivBevelFrame4pickEP8ivCanvasRK12ivAllocationiR5ivHit
_ZN12ivBevelFrame8allocateEP8ivCanvasRK12ivAllocationR11ivExtension
_ZN12ivBevelFrameC1EP7ivGlyphfffbb
_ZN12ivBevelFrameC2EP7ivGlyphfffbb
_ZN12ivBevelFrameD0Ev
_ZN12ivBevelFrameD1Ev
_ZN12ivBevelFrameD2Ev
_ZN12ivChoiceItem4initEv
_ZN12ivChoiceItem4lookEjjP7ivGlyph
_ZN12ivChoiceItem6updateEP12ivObservable
_ZN12ivChoiceItemC1EP15ivTelltaleState
_ZN12ivChoiceItemC1EP15ivTelltaleStateP7ivGlyphS3_
_ZN12ivChoiceItemC1EP15ivTelltaleStateP7ivGlyphS3_S3_S3_S3_S3_S3_S3_S3_S3_
_ZN12ivChoiceItemC2EP15ivTelltaleState
_ZN12ivChoiceItemC2EP15ivTelltaleStateP7ivGlyphS3_
_ZN12ivChoiceItemC2EP15ivTelltaleStateP7ivGlyphS3_S3_S3_S3_S3_S3_S3_S3_S3_
_ZN12ivChoiceItemD0Ev
_ZN12ivChoiceItemD1Ev
_ZN12ivChoiceItemD2Ev
_ZN12ivDisplayRepC1Ev
_ZN12ivDisplayRepC2Ev
_ZN12ivDisplayRepD1Ev
_ZN12ivDisplayRepD2Ev
_ZN12ivFontFamilyC1EPKc
_ZN12ivFontFamilyC2EPKc
_ZN12ivFontFamilyD0Ev
_ZN12ivFontFamilyD1Ev
_ZN12ivFontFamilyD2Ev
_ZN12ivObservable6attachEP10ivObserver
_ZN12ivObservable6detachEP10ivObserver
_ZN12ivObservable6notifyEv
_ZN12ivObservableC1Ev
_ZN12ivObservableC2Ev
_ZN12ivObservableD0Ev
_ZN12ivObservableD1Ev
_ZN12ivObservableD2Ev
_ZN12ivSMFKitImpl10make_thumbEP8ivSliderjP10SMFKitInfo
_ZN12ivSMFKitImpl5matchERK7ivStyleS2_PKc
_ZN12ivSMFKitImpl5shadeEP8ivCanvasRK12ivAllocationRK10SMFKitInfoPKiiPf
_ZN12ivSMFKitImplC1EP8ivSMFKit
_ZN12ivSMFKitImplC2EP8ivSMFKit
_ZN12ivSMFKitImplD1Ev
_ZN12ivSMFKitImplD2Ev
_ZN12ivSessionRep10init_styleEPKcPK14ivPropertyData
_ZN12ivSessionRep10load_propsEP7ivStylePK14ivPropertyDatai
_ZN12ivSessionRep10parse_argsERiPPcPK12ivOptionDesc
_ZN12ivSessionRep12init_displayEv
_ZN12ivSessionRep13load_propertyEP7ivStyleRK8osStringi
_ZN12ivSessionRep13missing_colonERK8osString
_ZN12ivSessionRep17bad_property_nameERK8osString
_ZN12ivSessionRep17load_app_defaultsEP7ivStylePKci
_ZN12ivSessionRep18bad_property_valueERK8osString
_ZN12ivSessionRep4initEPKcRiPPcPK12ivOptionDescPK14ivPropertyData
_ZN12ivSessionRep5checkER7ivEvent
_ZN12ivSessionRep5matchERK8osStringRK12ivOptionDescRiiPPc
_ZN12ivSessionRep5stripERK8osString
_ZN12ivSessionRep7bad_argEPKcRK8osString
_ZN12ivSessionRep7connectEP9ivDisplay
_ZN12ivSessionRep7extractERK8osStringRK12ivOptionDescRiiPPcRS0_S9_
_ZN12ivSessionRep8find_argERK8osStringRS0_
_ZN12ivSessionRep8next_argERiiPPcPKcRK8osString
_ZN12ivSessionRep9find_nameEv
_ZN12ivSessionRep9instance_E
_ZN12ivSessionRep9load_fileEP7ivStylePKci
_ZN12ivSessionRep9load_listEP7ivStyleRK8osStringi
_ZN12ivSessionRep9load_pathEP7ivStylePKcS3_i
_ZN12ivSessionRep9set_styleEP9ivDisplay
_ZN12ivSessionRepC1Ev
_ZN12ivSessionRepC2Ev
_ZN12ivSessionRepD1Ev
_ZN12ivSessionRepD2Ev
_ZN12ivSliderImpl12get_positionEP8ivSliderRK7ivEventRfS5_
_ZN12ivSliderImpl9hit_thumbEP8ivSliderRK7ivEvent
_ZN12osCopyString7strfreeEv
_ZN12osCopyString9set_valueEPKc
_ZN12osCopyString9set_valueEPKci
_ZN12osCopyStringC1EPKc
_ZN12osCopyStringC1EPKci
_ZN12osCopyStringC1ERK8osString
_ZN12osCopyStringC1ERKS_
_ZN12osCopyStringC1Ev
_ZN12osCopyStringC2EPKc
_ZN12osCopyStringC2EPKci
_ZN12osCopyStringC2ERK8osString
_ZN12osCopyStringC2ERKS_
_ZN12osCopyStringC2Ev
_ZN12osCopyStringD0Ev
_ZN12osCopyStringD1Ev
_ZN12osCopyStringD2Ev
_ZN12osCopyStringaSEPKc
_ZN12osCopyStringaSERK8osString
_ZN12osCopyStringaSERKS_
_ZN13BBSS_BufferIn1iERii
_ZN13BBSS_BufferIn1sEPci
_ZN13BBSS_BufferIn3cpyEiPc
_ZN13BBSS_BufferIn4skipEi
_ZN13BBSS_BufferIn4typeEv
_ZN13BBSS_BufferInC1EPci
_ZN13BBSS_BufferInC2EPci
_ZN13BBSS_BufferInD0Ev
_ZN13BBSS_BufferInD1Ev
_ZN13BBSS_BufferInD2Ev
_ZN13BackwardPager6adjustEv
_ZN13BackwardPagerC1EP7ivGlyphP7ivStyleP15ivTelltaleStateP12ivAdjustablej
_ZN13BackwardPagerC2EP7ivGlyphP7ivStyleP15ivTelltaleStateP12ivAdjustablej
_ZN13BackwardPagerD0Ev
_ZN13BackwardPagerD1Ev
_ZN13BackwardPagerD2Ev
_ZN13BoxBackgroundC1Ev
_ZN13BoxBackgroundC2Ev
_ZN13BoxBackgroundD0Ev
_ZN13BoxBackgroundD1Ev
_ZN13BoxBackgroundD2Ev
_ZN13BrowserAccept7executeEv
_ZN13BrowserAcceptC1EP14SectionBrowser
_ZN13BrowserAcceptC2EP14SectionBrowser
_ZN13BrowserAcceptD0Ev
_ZN13BrowserAcceptD1Ev
_ZN13BrowserAcceptD2Ev
_ZN13ButtonHandlerC1EjP10Rubberband
_ZN13ButtonHandlerC1EjP9OcHandler
_ZN13ButtonHandlerC2EjP10Rubberband
_ZN13ButtonHandlerC2EjP9OcHandler
_ZN13ButtonHandlerD1Ev
_ZN13ButtonHandlerD2Ev
_ZN13DialogHandler5eventER7ivEvent
_ZN13DialogHandlerC1EP8ivDialog
_ZN13DialogHandlerC2EP8ivDialog
_ZN13DialogHandlerD0Ev
_ZN13DialogHandlerD1Ev
_ZN13DialogHandlerD2Ev
_ZN13DiscreteEvent10disconnectEP12ivObservable
_ZN13DiscreteEvent12frecord_initEP6TQItem
_ZN13DiscreteEvent13pgvts_deliverEdP8NetCvode
_ZN13DiscreteEvent14savestate_readEP6_iobuf
_ZN13DiscreteEvent14savestate_saveEv
_ZN13DiscreteEvent15savestate_writeEP6_iobuf
_ZN13DiscreteEvent17savestate_restoreEdP8NetCvode
_ZN13DiscreteEvent18discretevent_send_E
_ZN13DiscreteEvent21discretevent_deliver_E
_ZN13DiscreteEvent2prEPKcdP8NetCvode
_ZN13DiscreteEvent4sendEdP8NetCvodeP9NrnThread
_ZN13DiscreteEvent4typeEv
_ZN13DiscreteEvent6threadEv
_ZN13DiscreteEvent7deliverEdP8NetCvodeP9NrnThread
_ZN13DiscreteEvent8pgvts_opERi
_ZN13DiscreteEventC1Ev
_ZN13DiscreteEventC2Ev
_ZN13DiscreteEventD0Ev
_ZN13DiscreteEventD1Ev
_ZN13DiscreteEventD2Ev
_ZN13Discretionary7composeEj
_ZN13DiscretionaryC1EiP7ivGlyph
_ZN13DiscretionaryC1EiP7ivGlyphS1_S1_S1_
_ZN13DiscretionaryC2EiP7ivGlyph
_ZN13DiscretionaryC2EiP7ivGlyphS1_S1_S1_
_ZN13DiscretionaryD0Ev
_ZN13DiscretionaryD1Ev
_ZN13DiscretionaryD2Ev
_ZN13FastGraphItem7is_fastEv
_ZN13FastGraphItemC1EP9FastShapebb
_ZN13FastGraphItemC2EP9FastShapebb
_ZN13FastGraphItemD0Ev
_ZN13FastGraphItemD1Ev
_ZN13GPolyLineItem11is_polylineEv
_ZN13GPolyLineItem4saveERSoff
_ZN13GPolyLineItem5eraseEP5Sceneli
_ZN13GPolyLineItemD0Ev
_ZN13GPolyLineItemD1Ev
_ZN13GVectorRecord10continuousEd
_ZN13GVectorRecord11hoc_installEP5Cvode
_ZN13GVectorRecord11record_initEv
_ZN13GVectorRecord4typeEv
_ZN13GVectorRecord4usesEPv
_ZN13GVectorRecord5countEv
_ZN13GVectorRecord5pdataEi
_ZN13GVectorRecordC1EP11GraphVector
_ZN13GVectorRecordC2EP11GraphVector
_ZN13GVectorRecordD0Ev
_ZN13GVectorRecordD1Ev
_ZN13GVectorRecordD2Ev
_ZN13GraphAxisItem4saveERSoff
_ZN13GraphAxisItem5eraseEP5Sceneli
_ZN13GraphAxisItemD0Ev
_ZN13GraphAxisItemD1Ev
_ZN13GraphMarkItem5eraseEP5Sceneli
_ZN13GraphMarkItem7is_markEv
_ZN13GraphMarkItemD0Ev
_ZN13GraphMarkItemD1Ev
_ZN13HocMenuAction7executeEv
_ZN13HocMenuActionC1EPKcP6ObjectP7HocMenu
_ZN13HocMenuActionC2EPKcP6ObjectP7HocMenu
_ZN13HocMenuActionD0Ev
_ZN13HocMenuActionD1Ev
_ZN13HocMenuActionD2Ev
_ZN13HocPushButton5writeERSo
_ZN13HocPushButtonC1EPKcP9HocActionP7HocItem
_ZN13HocPushButtonC2EPKcP9HocActionP7HocItem
_ZN13HocPushButtonD0Ev
_ZN13HocPushButtonD1Ev
_ZN13HocPushButtonD2Ev
_ZN13HocUpdateItem11update_ptrsEv
_ZN13HocUpdateItem13check_pointerEPvi
_ZN13HocUpdateItem15update_hoc_itemEv
_ZN13HocUpdateItem18update_ptrs_helperEPPd
_ZN13HocUpdateItem9data_pathEP12HocDataPathsb
_ZN13HocUpdateItemC1EPKcP7HocItem
_ZN13HocUpdateItemC2EPKcP7HocItem
_ZN13HocUpdateItemD0Ev
_ZN13HocUpdateItemD1Ev
_ZN13HocUpdateItemD2Ev
_ZN13HocValStepper11default_incEbd
_ZN13HocValStepper4leftEv
_ZN13HocValStepper5menu_E
_ZN13HocValStepper5pressERK7ivEvent
_ZN13HocValStepper5rightEv
_ZN13HocValStepper6adjustEv
_ZN13HocValStepper6middleEv
_ZN13HocValStepper7menu_upER7ivEvent
_ZN13HocValStepper7releaseERK7ivEvent
_ZN13HocValStepper8instanceEP12HocValEditor
_ZN13HocValStepperC1EP12HocValEditorP7ivGlyphP7ivStyleP15ivTelltaleState
_ZN13HocValStepperC2EP12HocValEditorP7ivGlyphP7ivStyleP15ivTelltaleState
_ZN13HocValStepperD0Ev
_ZN13HocValStepperD1Ev
_ZN13HocValStepperD2Ev
_ZN13KSChanSigmoid1fEd
_ZN13KSChanSigmoid4typeEv
_ZN13KSChanSigmoidD0Ev
_ZN13KSChanSigmoidD1Ev
_ZN13KSGateComplex11conductanceEPdP7KSState
_ZN13KSGateComplexC1Ev
_ZN13KSGateComplexC2Ev
_ZN13KSGateComplexD0Ev
_ZN13KSGateComplexD1Ev
_ZN13KSGateComplexD2Ev
_ZN13KSPPIvNonSpec3curEdPdP5Datumd
_ZN13KSPPIvNonSpec5jacobEPdP5Datumd
_ZN13KSPPIvNonSpecD0Ev
_ZN13KSPPIvNonSpecD1Ev
_ZN13KSSingleStateC1Ev
_ZN13KSSingleStateC2Ev
_ZN13KSSingleStateD0Ev
_ZN13KSSingleStateD1Ev
_ZN13KSSingleStateD2Ev
_ZN13KSSingleTrans4rateEP13Point_process
_ZN13KSSingleTransC1Ev
_ZN13KSSingleTransC2Ev
_ZN13KSSingleTransD0Ev
_ZN13KSSingleTransD1Ev
_ZN13KSSingleTransD2Ev
_ZN13LayoutKitImpl3addEP11ivPolyGlyphP7ivGlyphS3_S3_S3_S3_S3_S3_S3_S3_S3_
_ZN13LayoutKitImpl9instance_E
_ZN13LineExtension5beginEv
_ZN13LineExtension6damageEP5Graph
_ZN13LineExtension6extendEv
_ZN13LineExtension8allocateEP8ivCanvasRK12ivAllocationR11ivExtension
_ZN13LineExtensionC1EP9GPolyLine
_ZN13LineExtensionC2EP9GPolyLine
_ZN13LineExtensionD0Ev
_ZN13LineExtensionD1Ev
_ZN13LineExtensionD2Ev
_ZN13MFKitInfoList6insertElP9MFKitInfo
_ZN13MFKitMenuItem4pickEP8ivCanvasRK12ivAllocationiR5ivHit
_ZN13MFKitMenuItemC1EP7ivGlyphP15ivTelltaleState
_ZN13MFKitMenuItemC2EP7ivGlyphP15ivTelltaleState
_ZN13MFKitMenuItemD0Ev
_ZN13MFKitMenuItemD1Ev
_ZN13MFKitMenuItemD2Ev
_ZN13MWcontrolHWND15find_and_removeERP7MWchildP6HWND__
_ZN13MWcontrolHWND4findERP7MWchildP6HWND__
_ZN13MWcontrolHWND6insertEP6HWND__P7MWchild
_ZN13MWcontrolHWND6removeEP6HWND__
_ZN13MWcontrolHWNDC1Ei
_ZN13MWcontrolHWNDC2Ei
_ZN13MWcontrolHWNDD1Ev
_ZN13MWcontrolHWNDD2Ev
_ZN13MakeSpacePlot7executeEP10Rubberband
_ZN13MakeSpacePlotC1EP13ShapePlotImpl
_ZN13MakeSpacePlotC2EP13ShapePlotImpl
_ZN13MakeSpacePlotD0Ev
_ZN13MakeSpacePlotD1Ev
_ZN13MakeSpacePlotD2Ev
_ZN13MechanismType13has_net_eventEi
_ZN13MechanismType13internal_typeEv
_ZN13MechanismType13is_artificialEi
_ZN13MechanismType13point_processEPP6Object
_ZN13MechanismType13selected_itemEv
_ZN13MechanismType16is_netcon_targetEi
_ZN13MechanismType4menuEv
_ZN13MechanismType5countEv
_ZN13MechanismType6actionEPKcP6Object
_ZN13MechanismType6insertEP7Section
_ZN13MechanismType6removeEP7Section
_ZN13MechanismType6selectEPKc
_ZN13MechanismType6selectEi
_ZN13MechanismType7pp_nextEv
_ZN13MechanismType8is_pointEv
_ZN13MechanismType8pp_beginEv
_ZN13MechanismType8selectedEv
_ZN13MechanismTypeC1Eb
_ZN13MechanismTypeC2Eb
_ZN13MechanismTypeD0Ev
_ZN13MechanismTypeD1Ev
_ZN13MechanismTypeD2Ev
_ZN13MoveLabelBand4drawEff
_ZN13MoveLabelBand5pressER7ivEvent
_ZN13MoveLabelBand7releaseER7ivEvent
_ZN13MoveLabelBandC1EP6GLabelP12RubberActionP8ivCanvas
_ZN13MoveLabelBandC2EP6GLabelP12RubberActionP8ivCanvas
_ZN13MoveLabelBandD0Ev
_ZN13MoveLabelBandD1Ev
_ZN13MoveLabelBandD2Ev
_ZN13ObjObservable6AttachEP6ObjectP10ivObserver
_ZN13ObjObservable6DetachEP6ObjectP10ivObserver
_ZN13ObjObservableC1EP6Object
_ZN13ObjObservableC2EP6Object
_ZN13ObjObservableD0Ev
_ZN13ObjObservableD1Ev
_ZN13ObjObservableD2Ev
_ZN13ObjectContextC1EP6Object
_ZN13ObjectContextC2EP6Object
_ZN13ObjectContextD1Ev
_ZN13ObjectContextD2Ev
_ZN13OcGlyphDialog4pickEP8ivCanvasRK12ivAllocationiR5ivHit
_ZN13OcGlyphDialogC1EP7ivGlyphP7ivStyle
_ZN13OcGlyphDialogC2EP7ivGlyphP7ivStyle
_ZN13OcGlyphDialogD0Ev
_ZN13OcGlyphDialogD1Ev
_ZN13OcGlyphDialogD2Ev
_ZN13OcListBrowser10dragselectEl
_ZN13OcListBrowser11change_nameEl
_ZN13OcListBrowser13ocglyph_unmapEv
_ZN13OcListBrowser17set_accept_actionEPKcP6Object
_ZN13OcListBrowser17set_select_actionEPKcbP6Object
_ZN13OcListBrowser4dragERK7ivEvent
_ZN13OcListBrowser6acceptEv
_ZN13OcListBrowser6reloadEl
_ZN13OcListBrowser6reloadEv
_ZN13OcListBrowser6selectEl
_ZN13OcListBrowser7ocglyphEP8ivWindow
_ZN13OcListBrowser7releaseERK7ivEvent
_ZN13OcListBrowser8focus_inEv
_ZN13OcListBrowser9load_itemEl
_ZN13OcListBrowserC1EP6OcListPKcP6Object
_ZN13OcListBrowserC1EP6OcListPPcPKc
_ZN13OcListBrowserC2EP6OcListPKcP6Object
_ZN13OcListBrowserC2EP6OcListPPcPKc
_ZN13OcListBrowserD0Ev
_ZN13OcListBrowserD1Ev
_ZN13OcListBrowserD2Ev
_ZN13OcMLineEditorC1EjjPKc
_ZN13OcMLineEditorC2EjjPKc
_ZN13OcMLineEditorD0Ev
_ZN13OcMLineEditorD1Ev
_ZN13OcMLineEditorD2Ev
_ZN13ParseTopLevel4saveEv
_ZN13ParseTopLevel7restoreEv
_ZN13ParseTopLevelC1Ev
_ZN13ParseTopLevelC2Ev
_ZN13ParseTopLevelD0Ev
_ZN13ParseTopLevelD1Ev
_ZN13ParseTopLevelD2Ev
_ZN13PolyGlyphList6insertElP7ivGlyph
_ZN13STETransition10deactivateEv
_ZN13STETransition5eventEv
_ZN13STETransition8activateEv
_ZN13STETransitionC1EP13Point_process
_ZN13STETransitionC2EP13Point_process
_ZN13Scene_PtrList6insertElP5Scene
_ZN13ShapePlotData11has_iv_viewEv
_ZN13ShapePlotData19neuron_section_listEv
_ZN13ShapePlotData3lowEv
_ZN13ShapePlotData4highEv
_ZN13ShapePlotData5scaleEff
_ZN13ShapePlotData6varobjEPv
_ZN13ShapePlotData8variableEP6Symbol
_ZN13ShapePlotDataC1EP6SymbolP6Object
_ZN13ShapePlotDataC2EP6SymbolP6Object
_ZN13ShapePlotDataD0Ev
_ZN13ShapePlotDataD1Ev
_ZN13ShapePlotDataD2Ev
_ZN13ShapePlotImpl14show_shape_valEb
_ZN13ShapePlotImpl15select_variableEv
_ZN13ShapePlotImpl4timeEv
_ZN13ShapePlotImpl5scaleEv
_ZN13ShapePlotImpl5shapeEv
_ZN13ShapePlotImpl5spaceEv
_ZN13ShapePlotImpl6updateEP12ivObservable
_ZN13ShapePlotImpl8colorbarEv
_ZN13ShapePlotImplC1EP9ShapePlotP6Symbol
_ZN13ShapePlotImplC2EP9ShapePlotP6Symbol
_ZN13ShapePlotImplD0Ev
_ZN13ShapePlotImplD1Ev
_ZN13ShapePlotImplD2Ev
_ZN13VirtualWindow17makeVirtualWindowEv
_ZN13VirtualWindow4viewEv
_ZN13VirtualWindow9virt_win_E
_ZN13VirtualWindowC1EP4ViewP7ivGlyph
_ZN13VirtualWindowC2EP4ViewP7ivGlyph
_ZN13VirtualWindowD0Ev
_ZN13VirtualWindowD1Ev
_ZN13VirtualWindowD2Ev
_ZN13WholePlotView7executeEv
_ZN13WholePlotViewD0Ev
_ZN13WholePlotViewD1Ev
_ZN13XYView_helper18current_draw_view_E
_ZN13XYView_helper18current_pick_view_E
_ZN13XYView_helper4pickEP8ivCanvasRK12ivAllocationiR5ivHit
_ZN13XYView_helper8allocateEP8ivCanvasRK12ivAllocationR11ivExtension
_ZN13XYView_helperC1EP5SceneP6XYView
_ZN13XYView_helperC2EP5SceneP6XYView
_ZN13XYView_helperD0Ev
_ZN13XYView_helperD1Ev
_ZN13XYView_helperD2Ev
_ZN13ivBrowserList6insertElP15ivTelltaleState
_ZN13ivFieldEditor4dragERK7ivEvent
_ZN13ivFieldEditor4editEPKcii
_ZN13ivFieldEditor4editERK8osStringii
_ZN13ivFieldEditor4editEv
_ZN13ivFieldEditor5fieldEPKc
_ZN13ivFieldEditor5fieldERK8osString
_ZN13ivFieldEditor5pressERK7ivEvent
_ZN13ivFieldEditor6selectEi
_ZN13ivFieldEditor6selectEii
_ZN13ivFieldEditor6undrawEv
_ZN13ivFieldEditor7releaseERK7ivEvent
_ZN13ivFieldEditor8focus_inEv
_ZN13ivFieldEditor9focus_outEv
_ZN13ivFieldEditor9keystrokeERK7ivEvent
_ZN13ivFieldEditorC1ERK8osStringP11ivWidgetKitP7ivStyleP19ivFieldEditorAction
_ZN13ivFieldEditorC2ERK8osStringP11ivWidgetKitP7ivStyleP19ivFieldEditorAction
_ZN13ivFieldEditorD0Ev
_ZN13ivFieldEditorD1Ev
_ZN13ivFieldEditorD2Ev
_ZN13ivFileBrowser4dragERK7ivEvent
_ZN13ivFileBrowser5pressERK7ivEvent
_ZN13ivFileBrowser6selectEl
_ZN13ivFileBrowser7refreshEv
_ZN13ivFileBrowser7releaseERK7ivEvent
_ZN13ivFileBrowser8focus_inEv
_ZN13ivFileBrowser9focus_outEv
_ZN13ivFileBrowser9keystrokeERK7ivEvent
_ZN13ivFileBrowserC1EP11ivWidgetKitP8ivActionS3_
_ZN13ivFileBrowserC2EP11ivWidgetKitP8ivActionS3_
_ZN13ivFileBrowserD0Ev
_ZN13ivFileBrowserD1Ev
_ZN13ivFileBrowserD2Ev
_ZN13ivFileChooser6rereadEv
_ZN13ivFileChooser7dismissEb
_ZN13ivFileChooserC1ERK8osStringP11ivWidgetKitP7ivStyleP19ivFileChooserAction
_ZN13ivFileChooserC2ERK8osStringP11ivWidgetKitP7ivStyleP19ivFileChooserAction
_ZN13ivFileChooserD0Ev
_ZN13ivFileChooserD1Ev
_ZN13ivFileChooserD2Ev
_ZN13ivFixedLayout7requestElPK13ivRequisitionRS0_
_ZN13ivFixedLayout8allocateERK12ivAllocationlPK13ivRequisitionPS0_
_ZN13ivFixedLayoutC1Ejf
_ZN13ivFixedLayoutC2Ejf
_ZN13ivFixedLayoutD0Ev
_ZN13ivFixedLayoutD1Ev
_ZN13ivFixedLayoutD2Ev
_ZN13ivMFDialogKitC1Ev
_ZN13ivMFDialogKitC2Ev
_ZN13ivMFDialogKitD0Ev
_ZN13ivMFDialogKitD1Ev
_ZN13ivMFDialogKitD2Ev
_ZN13ivPopupWindow14set_attributesEv
_ZN13ivPopupWindow7receiveERK7ivEvent
_ZN13ivPopupWindowC1EP7ivGlyph
_ZN13ivPopupWindowC2EP7ivGlyph
_ZN13ivPopupWindowD0Ev
_ZN13ivPopupWindowD1Ev
_ZN13ivPopupWindowD2Ev
_ZN13ivRequirementC1Effffff
_ZN13ivRequirementC2Effffff
_ZN13ivRequisition11requirementEj
_ZN13ivRequisition7requireEjRK13ivRequirement
_ZN13ivRequisitionC1ERKS_
_ZN13ivRequisitionC1Ev
_ZN13ivRequisitionC2ERKS_
_ZN13ivRequisitionC2Ev
_ZN13ivTBScrollBox12page_forwardEj
_ZN13ivTBScrollBox13page_backwardEj
_ZN13ivTBScrollBox14scroll_forwardEj
_ZN13ivTBScrollBox15scroll_backwardEj
_ZN13ivTBScrollBox4pickEP8ivCanvasRK12ivAllocationiR5ivHit
_ZN13ivTBScrollBox6undrawEv
_ZN13ivTBScrollBox8allocateEP8ivCanvasRK12ivAllocationR11ivExtension
_ZN13ivTBScrollBox8modifiedEl
_ZN13ivTBScrollBox9do_scrollEjll
_ZN13ivTBScrollBox9scroll_byEjl
_ZN13ivTBScrollBox9scroll_toEjf
_ZN13ivTBScrollBoxC1El
_ZN13ivTBScrollBoxC2El
_ZN13ivTBScrollBoxD0Ev
_ZN13ivTBScrollBoxD1Ev
_ZN13ivTBScrollBoxD2Ev
_ZN13ivTransformer11premultiplyERKS_
_ZN13ivTransformer12postmultiplyERKS_
_ZN13ivTransformer4skewEff
_ZN13ivTransformer5scaleEff
_ZN13ivTransformer6invertEv
_ZN13ivTransformer6rotateEf
_ZN13ivTransformer6updateEv
_ZN13ivTransformer9translateEff
_ZN13ivTransformerC1ERKS_
_ZN13ivTransformerC1Effffff
_ZN13ivTransformerC1Ev
_ZN13ivTransformerC2ERKS_
_ZN13ivTransformerC2Effffff
_ZN13ivTransformerC2Ev
_ZN13ivTransformerD0Ev
_ZN13ivTransformerD1Ev
_ZN13ivTransformerD2Ev
_ZN13ivTransformeraSERKS_
_ZN14AxisBackgroundC1Ev
_ZN14AxisBackgroundC2Ev
_ZN14AxisBackgroundD0Ev
_ZN14AxisBackgroundD1Ev
_ZN14AxisBackgroundD2Ev
_ZN14BBSLocalServer11post_resultEiP12MessageValue
_ZN14BBSLocalServer14look_take_todoEPP12MessageValue
_ZN14BBSLocalServer16look_take_resultEiPP12MessageValue
_ZN14BBSLocalServer4lookEPKcPP12MessageValue
_ZN14BBSLocalServer4postEPKcP12MessageValue
_ZN14BBSLocalServer9look_takeEPKcPP12MessageValue
_ZN14BBSLocalServer9post_todoEiP12MessageValue
_ZN14BBSLocalServerC1Ev
_ZN14BBSLocalServerC2Ev
_ZN14BBSLocalServerD0Ev
_ZN14BBSLocalServerD1Ev
_ZN14BBSLocalServerD2Ev
_ZN14BBSS_BufferOut1aEi
_ZN14BBSS_BufferOut1dEiPd
_ZN14BBSS_BufferOut1dEiRd
_ZN14BBSS_BufferOut1iERii
_ZN14BBSS_BufferOut1sEPci
_ZN14BBSS_BufferOut3cpyEiPc
_ZN14BBSS_BufferOut4typeEv
_ZN14BBSS_BufferOutC1EPci
_ZN14BBSS_BufferOutC2EPci
_ZN14BBSS_BufferOutD0Ev
_ZN14BBSS_BufferOutD1Ev
_ZN14BBSS_BufferOutD2Ev
_ZN14BBSS_TxtFileIn1dEiPd
_ZN14BBSS_TxtFileIn1dEiRd
_ZN14BBSS_TxtFileIn1iERii
_ZN14BBSS_TxtFileIn1sEPci
_ZN14BBSS_TxtFileIn4skipEi
_ZN14BBSS_TxtFileIn4typeEv
_ZN14BBSS_TxtFileInC1EPKc
_ZN14BBSS_TxtFileInC2EPKc
_ZN14BBSS_TxtFileInD0Ev
_ZN14BBSS_TxtFileInD1Ev
_ZN14BBSS_TxtFileInD2Ev
_ZN14ButtonItemInfo10menu_indexEv
_ZN14ButtonItemInfoC1EPKcP8ivActionP15ivTelltaleStateP10ivMenuItemP6ivMenu
_ZN14ButtonItemInfoC2EPKcP8ivActionP15ivTelltaleStateP10ivMenuItemP6ivMenu
_ZN14ButtonItemInfoD0Ev
_ZN14ButtonItemInfoD1Ev
_ZN14ButtonItemInfoD2Ev
_ZN14ConditionEvent11eq_abandon_E
_ZN14ConditionEvent11init_above_E
_ZN14ConditionEvent13send_qthresh_E
_ZN14ConditionEvent14abandon_above_E
_ZN14ConditionEvent14abandon_below_E
_ZN14ConditionEvent16deliver_qthresh_E
_ZN14ConditionEvent18abandon_statisticsEP5Cvode
_ZN14ConditionEvent19abandon_init_above_E
_ZN14ConditionEvent19abandon_init_below_E
_ZN14ConditionEvent5checkEP9NrnThreaddd
_ZN14ConditionEvent5valueEv
_ZN14ConditionEvent8abandon_E
_ZN14ConditionEvent9conditionEP5Cvode
_ZN14ConditionEventC1Ev
_ZN14ConditionEventC2Ev
_ZN14ConditionEventD0Ev
_ZN14ConditionEventD1Ev
_ZN14ConditionEventD2Ev
_ZN14CopyStringList10remove_allEv
_ZN14CopyStringList6insertElRK12osCopyString
_ZN14CopyStringList6removeEl
_ZN14CopyStringListC1El
_ZN14CopyStringListC2El
_ZN14CopyStringListD1Ev
_ZN14CopyStringListD2Ev
_ZN14DWList_UpdaterC1ER6DWList
_ZN14DWList_UpdaterC2ER6DWList
_ZN14DirectoryEntry10set_is_dirEP15osDirectoryImpl
_ZN14GraphLabelItem4saveERSoff
_ZN14GraphLabelItem5eraseEP5Sceneli
_ZN14GraphLabelItemD0Ev
_ZN14GraphLabelItemD1Ev
_ZN14HocCommandTool5eventER7ivEvent
_ZN14HocCommandToolC1EP10HocCommand
_ZN14HocCommandToolC2EP10HocCommand
_ZN14HocCommandToolD0Ev
_ZN14HocCommandToolD1Ev
_ZN14HocCommandToolD2Ev
_ZN14HocRadioAction4helpEv
_ZN14HocRadioActionC1EPKcP15OcTelltaleGroupP6Object
_ZN14HocRadioActionC2EPKcP15OcTelltaleGroupP6Object
_ZN14HocRadioActionD0Ev
_ZN14HocRadioActionD1Ev
_ZN14HocRadioActionD2Ev
_ZN14HocRadioButton5writeERSo
_ZN14HocRadioButtonC1EPKcP14HocRadioActionP7HocItem
_ZN14HocRadioButtonC2EPKcP14HocRadioActionP7HocItem
_ZN14HocRadioButtonD0Ev
_ZN14HocRadioButtonD1Ev
_ZN14HocRadioButtonD2Ev
_ZN14HocStateButton11update_ptrsEv
_ZN14HocStateButton13button_actionEv
_ZN14HocStateButton13check_pointerEPvi
_ZN14HocStateButton15update_hoc_itemEv
_ZN14HocStateButton5writeERSo
_ZN14HocStateButton6chosenEv
_ZN14HocStateButton9data_pathEP12HocDataPathsb
_ZN14HocStateButtonC1EPdPKcP8ivButtonP9HocActioniP7HocItemP6Object
_ZN14HocStateButtonC2EPdPKcP8ivButtonP9HocActioniP7HocItemP6Object
_ZN14HocStateButtonD0Ev
_ZN14HocStateButtonD1Ev
_ZN14HocStateButtonD2Ev
_ZN14HyperGeometricD0Ev
_ZN14HyperGeometricD1Ev
_ZN14HyperGeometricclEv
_ZN14KSChanFunction12new_functionEiP8IvocVectdd
_ZN14KSChanFunction1fEd
_ZN14KSChanFunction4typeEv
_ZN14KSChanFunctionC1Ev
_ZN14KSChanFunctionC2Ev
_ZN14KSChanFunctionD0Ev
_ZN14KSChanFunctionD1Ev
_ZN14KSChanFunctionD2Ev
_ZN14MWcontrolTable15find_and_removeERP7MWchildl
_ZN14MWcontrolTable4findERP7MWchildl
_ZN14MWcontrolTable6insertElP7MWchild
_ZN14MWcontrolTable6removeEl
_ZN14MWcontrolTableC1Ei
_ZN14MWcontrolTableC2Ei
_ZN14MWcontrolTableD1Ev
_ZN14MWcontrolTableD2Ev
_ZN14MWcreateParams11classnameOfEPKc
_ZN14MWcreateParams11classnameOfEv
_ZN14MWcreateParams7titleOfEPKc
_ZN14MWcreateParams7titleOfEv
_ZN14MWcreateParamsC1Ev
_ZN14MWcreateParamsC2Ev
_ZN14MWcreateParamsD1Ev
_ZN14MWcreateParamsD2Ev
_ZN14Multisend_Send4sendEid
_ZN14Multisend_SendD0Ev
_ZN14Multisend_SendD1Ev
_ZN14Multisend_SendD2Ev
_ZN14NegativeExpntlD0Ev
_ZN14NegativeExpntlD1Ev
_ZN14NegativeExpntlclEv
_ZN14NrnFixedLayout4spanEf
_ZN14NrnFixedLayout4spanEv
_ZN14NrnFixedLayout7requestElPK13ivRequisitionRS0_
_ZN14NrnFixedLayout8allocateERK12ivAllocationlPK13ivRequisitionPS0_
_ZN14NrnFixedLayout8verticalEv
_ZN14NrnFixedLayoutC1Ejf
_ZN14NrnFixedLayoutC2Ejf
_ZN14NrnFixedLayoutD0Ev
_ZN14NrnFixedLayoutD1Ev
_ZN14NrnFixedLayoutD2Ev
_ZN14OcShapeHandler5eventER7ivEvent
_ZN14OcShapeHandlerC1EP7OcShape
_ZN14OcShapeHandlerC2EP7OcShape
_ZN14OcShapeHandlerD0Ev
_ZN14OcShapeHandlerD1Ev
_ZN14OcShapeHandlerD2Ev
_ZN14OcSparseMatrix11spgetrowvalEiiPi
_ZN14OcSparseMatrix3mepEii
_ZN14OcSparseMatrix4mulvEP8IvocVectS1_
_ZN14OcSparseMatrix4ncolEv
_ZN14OcSparseMatrix4nrowEv
_ZN14OcSparseMatrix4pelmEii
_ZN14OcSparseMatrix4solvEP8IvocVectS1_b
_ZN14OcSparseMatrix4zeroEv
_ZN14OcSparseMatrix5identEv
_ZN14OcSparseMatrix6getvalEii
_ZN14OcSparseMatrix6setcolEiP8IvocVect
_ZN14OcSparseMatrix6setcolEid
_ZN14OcSparseMatrix6setrowEiP8IvocVect
_ZN14OcSparseMatrix6setrowEid
_ZN14OcSparseMatrix7setdiagEiP8IvocVect
_ZN14OcSparseMatrix7setdiagEid
_ZN14OcSparseMatrix8nonzerosERSt6vectorIiSaIiEES3_
_ZN14OcSparseMatrix8sprowlenEi
_ZN14OcSparseMatrixC1Eii
_ZN14OcSparseMatrixC2Eii
_ZN14OcSparseMatrixD0Ev
_ZN14OcSparseMatrixD1Ev
_ZN14OcSparseMatrixD2Ev
_ZN14PBrowserAccept7executeEv
_ZN14PBrowserAcceptC1EP19PointProcessBrowser
_ZN14PBrowserAcceptC2EP19PointProcessBrowser
_ZN14PBrowserAcceptD0Ev
_ZN14PBrowserAcceptD1Ev
_ZN14PBrowserAcceptD2Ev
_ZN14PPList_UpdaterC1ER6PPList
_ZN14PPList_UpdaterC2ER6PPList
_ZN14PlayRecordSave14savestate_readEP6_iobuf
_ZN14PlayRecordSave15savestate_writeEP6_iobuf
_ZN14PlayRecordSave17savestate_restoreEv
_ZN14PlayRecordSave5checkEv
_ZN14PlayRecordSaveC1EP10PlayRecord
_ZN14PlayRecordSaveC2EP10PlayRecord
_ZN14PlayRecordSaveD0Ev
_ZN14PlayRecordSaveD1Ev
_ZN14PlayRecordSaveD2Ev
_ZN14SMFKitInfoList6insertElP10SMFKitInfo
_ZN14SceneInfo_List10remove_allEv
_ZN14SceneInfo_List6insertElRK9SceneInfo
_ZN14SceneInfo_List6removeEl
_ZN14SceneInfo_ListC1El
_ZN14SceneInfo_ListC2El
_ZN14SceneInfo_ListD1Ev
_ZN14SceneInfo_ListD2Ev
_ZN14SectionBrowser20make_section_browserEv
_ZN14SectionBrowser6acceptEv
_ZN14SectionBrowser6selectEl
_ZN14SectionBrowserC1EP6Object
_ZN14SectionBrowserC1Ev
_ZN14SectionBrowserC2EP6Object
_ZN14SectionBrowserC2Ev
_ZN14SectionBrowserD0Ev
_ZN14SectionBrowserD1Ev
_ZN14SectionBrowserD2Ev
_ZN14SectionHandler13shape_sectionEP12ShapeSection
_ZN14SectionHandler13shape_sectionEv
_ZN14SectionHandler5eventER7ivEvent
_ZN14SectionHandlerC1Ev
_ZN14SectionHandlerC2Ev
_ZN14SectionHandlerD0Ev
_ZN14SectionHandlerD1Ev
_ZN14SectionHandlerD2Ev
_ZN14StandardPicker10bind_pressEjP10Rubberband
_ZN14StandardPicker10remove_allEj
_ZN14StandardPicker4bindEijP9OcHandler
_ZN14StandardPicker4pickEP8ivCanvasP7ivGlyphiR5ivHit
_ZN14StandardPicker5eventERK7ivEvent
_ZN14StandardPicker6unbindEij
_ZN14StandardPickerC1Ev
_ZN14StandardPickerC2Ev
_ZN14StandardPickerD0Ev
_ZN14StandardPickerD1Ev
_ZN14StandardPickerD2Ev
_ZN14StandardWindow12canvas_glyphEv
_ZN14StandardWindow4infoEv
_ZN14StandardWindow4lboxEv
_ZN14StandardWindow4rboxEv
_ZN14StandardWindow7menubarEv
_ZN14StandardWindowC1EP7ivGlyphS1_P6ivMenuS1_S1_
_ZN14StandardWindowC2EP7ivGlyphS1_P6ivMenuS1_S1_
_ZN14StandardWindowD0Ev
_ZN14StandardWindowD1Ev
_ZN14StandardWindowD2Ev
_ZN14SymChooserImpl10add_filterEP7ivStylePKcS3_S3_S3_P7ivGlyphP19ivFieldEditorAction
_ZN14SymChooserImpl10show_objidEv
_ZN14SymChooserImpl10show_pysecEv
_ZN14SymChooserImpl11show_objrefEv
_ZN14SymChooserImpl12makeshowmenuEv
_ZN14SymChooserImpl12selected_varEv
_ZN14SymChooserImpl13editor_acceptEP13ivFieldEditor
_ZN14SymChooserImpl13filter_acceptEP13ivFieldEditor
_ZN14SymChooserImpl14accept_browserEv
_ZN14SymChooserImpl14cancel_browserEv
_ZN14SymChooserImpl20accept_browser_indexEi
_ZN14SymChooserImpl21selected_vector_countEv
_ZN14SymChooserImpl4initEP10SymChooserP7ivStyleP16SymChooserAction
_ZN14SymChooserImpl4loadEi
_ZN14SymChooserImpl4showEi
_ZN14SymChooserImpl5buildEv
_ZN14SymChooserImpl5chdirEii
_ZN14SymChooserImpl5clearEi
_ZN14SymChooserImpl6scfreeEv
_ZN14SymChooserImpl8filteredERK8osStringP13ivFieldEditor
_ZN14SymChooserImpl8show_allEv
_ZN14SymChooserImpl8show_secEv
_ZN14SymChooserImpl8show_varEv
_ZN14SymChooserImplC1Ei
_ZN14SymChooserImplC2Ei
_ZN14SymChooserImplD1Ev
_ZN14SymChooserImplD2Ev
_ZN14VectorLineItem14is_graphVectorEv
_ZN14VectorLineItem5eraseEP5Sceneli
_ZN14VectorLineItemD0Ev
_ZN14VectorLineItemD1Ev
_ZN14WatchCondition11watch_send_E
_ZN14WatchCondition13pgvts_deliverEdP8NetCvode
_ZN14WatchCondition14watch_deliver_E
_ZN14WatchCondition2prEPKcdP8NetCvode
_ZN14WatchCondition4sendEdP8NetCvodeP9NrnThread
_ZN14WatchCondition5valueEv
_ZN14WatchCondition6threadEv
_ZN14WatchCondition7asf_errEv
_ZN14WatchCondition7deliverEdP8NetCvodeP9NrnThread
_ZN14WatchCondition8activateEd
_ZN14WatchCondition8pgvts_opERi
_ZN14WatchConditionC1EP13Point_processPFdS1_E
_ZN14WatchConditionC2EP13Point_processPFdS1_E
_ZN14WatchConditionD0Ev
_ZN14WatchConditionD1Ev
_ZN14WatchConditionD2Ev
_ZN14WholeSceneView7executeEv
_ZN14WholeSceneViewD0Ev
_ZN14WholeSceneViewD1Ev
_ZN14XYView_PtrList6insertElP6XYView
_ZN14iv3_TextBuffer12ForwardMatchEP8ivRegexpi
_ZN14iv3_TextBuffer13BackwardMatchEP8ivRegexpi
_ZN14iv3_TextBuffer13ForwardSearchEP8ivRegexpi
_ZN14iv3_TextBuffer14BackwardSearchEP8ivRegexpi
_ZN14iv3_TextBuffer4CopyEiPci
_ZN14iv3_TextBuffer5MatchEP8ivRegexpii
_ZN14iv3_TextBuffer6DeleteEii
_ZN14iv3_TextBuffer6InsertEiPKci
_ZN14iv3_TextBuffer6SearchEP8ivRegexpiii
_ZN14iv3_TextBufferC1EPKcii
_ZN14iv3_TextBufferC2EPKcii
_ZN14iv3_TextBufferD0Ev
_ZN14iv3_TextBufferD1Ev
_ZN14iv3_TextBufferD2Ev
_ZN14iv3_TextRegion5colorEPK7ivColor
_ZN14iv3_TextRegion5line1Ej
_ZN14iv3_TextRegion5line2Ej
_ZN14iv3_TextRegion7column1Ej
_ZN14iv3_TextRegion7column2Ej
_ZN14iv3_TextRegionC1ERKS_
_ZN14iv3_TextRegionC1Ev
_ZN14iv3_TextRegionC2ERKS_
_ZN14iv3_TextRegionC2Ev
_ZN14iv3_TextRegionD0Ev
_ZN14iv3_TextRegionD1Ev
_ZN14iv3_TextRegionD2Ev
_ZN14iv3_TextRegionaSERKS_
_ZN14ivCenterLayout7requestElPK13ivRequisitionRS0_
_ZN14ivCenterLayout8allocateERK12ivAllocationlPK13ivRequisitionPS0_
_ZN14ivCenterLayoutC1Ejf
_ZN14ivCenterLayoutC2Ejf
_ZN14ivCenterLayoutD0Ev
_ZN14ivCenterLayoutD1Ev
_ZN14ivCenterLayoutD2Ev
_ZN14ivInputHandler10next_focusEv
_ZN14ivInputHandler10prev_focusEv
_ZN14ivInputHandler12double_clickERK7ivEvent
_ZN14ivInputHandler18allocation_changedEP8ivCanvasRK12ivAllocation
_ZN14ivInputHandler20append_input_handlerEPS_
_ZN14ivInputHandler20remove_input_handlerEl
_ZN14ivInputHandler25remove_all_input_handlersEv
_ZN14ivInputHandler4dragERK7ivEvent
_ZN14ivInputHandler4moveERK7ivEvent
_ZN14ivInputHandler4pickEP8ivCanvasRK12ivAllocationiR5ivHit
_ZN14ivInputHandler5focusEPS_
_ZN14ivInputHandler5pressERK7ivEvent
_ZN14ivInputHandler6insideERK7ivEvent
_ZN14ivInputHandler6repickEiR5ivHit
_ZN14ivInputHandler6undrawEv
_ZN14ivInputHandler7releaseERK7ivEvent
_ZN14ivInputHandler8allocateEP8ivCanvasRK12ivAllocationR11ivExtension
_ZN14ivInputHandler8focus_inEv
_ZN14ivInputHandler9focus_outEv
_ZN14ivInputHandler9keystrokeERK7ivEvent
_ZN14ivInputHandlerC1EP7ivGlyphP7ivStyle
_ZN14ivInputHandlerC2EP7ivGlyphP7ivStyle
_ZN14ivInputHandlerD0Ev
_ZN14ivInputHandlerD1Ev
_ZN14ivInputHandlerD2Ev
_ZN14ivMarginLayout4spanEfRK13ivRequirementfff
_ZN14ivMarginLayout7requestElPK13ivRequisitionRS0_
_ZN14ivMarginLayout8allocateERK12ivAllocationlPK13ivRequisitionPS0_
_ZN14ivMarginLayoutC1Ef
_ZN14ivMarginLayoutC1Eff
_ZN14ivMarginLayoutC1Effff
_ZN14ivMarginLayoutC1Effffffffffff
_ZN14ivMarginLayoutC2Ef
_ZN14ivMarginLayoutC2Eff
_ZN14ivMarginLayoutC2Effff
_ZN14ivMarginLayoutC2Effffffffffff
_ZN14ivMarginLayoutD0Ev
_ZN14ivMarginLayoutD1Ev
_ZN14ivMarginLayoutD2Ev
_ZN14ivObserverList6insertElP10ivObserver
_ZN14ivTileReversed7requestElPK13ivRequisitionRS0_
_ZN14ivTileReversed8allocateERK12ivAllocationlPK13ivRequisitionPS0_
_ZN14ivTileReversedC1Ej
_ZN14ivTileReversedC2Ej
_ZN14ivTileReversedD0Ev
_ZN14ivTileReversedD1Ev
_ZN14ivTileReversedD2Ev
_ZN14osUniqueString4initERK8osString
_ZN14osUniqueString5pool_E
_ZN14osUniqueString6table_E
_ZN14osUniqueStringC1EPKc
_ZN14osUniqueStringC1EPKci
_ZN14osUniqueStringC1ERK8osString
_ZN14osUniqueStringC1ERKS_
_ZN14osUniqueStringC1Ev
_ZN14osUniqueStringC2EPKc
_ZN14osUniqueStringC2EPKci
_ZN14osUniqueStringC2ERK8osString
_ZN14osUniqueStringC2ERKS_
_ZN14osUniqueStringC2Ev
_ZN14osUniqueStringD0Ev
_ZN14osUniqueStringD1Ev
_ZN14osUniqueStringD2Ev
_ZN15BBSDirectServer11post_resultEiP9bbsmpibuf
_ZN15BBSDirectServer11put_pendingEPKci
_ZN15BBSDirectServer12context_waitEv
_ZN15BBSDirectServer12handle_blockEv
_ZN15BBSDirectServer12send_contextEi
_ZN15BBSDirectServer12take_pendingEPKcPi
_ZN15BBSDirectServer14look_take_todoEPP9bbsmpibuf
_ZN15BBSDirectServer16add_looking_todoEi
_ZN15BBSDirectServer16look_take_resultEiPP9bbsmpibuf
_ZN15BBSDirectServer4doneEv
_ZN15BBSDirectServer4lookEPKcPP9bbsmpibuf
_ZN15BBSDirectServer4postEPKcP9bbsmpibuf
_ZN15BBSDirectServer5startEv
_ZN15BBSDirectServer6handleEv
_ZN15BBSDirectServer7contextEP9bbsmpibuf
_ZN15BBSDirectServer7handle1Eiii
_ZN15BBSDirectServer7server_E
_ZN15BBSDirectServer9look_takeEPKcPP9bbsmpibuf
_ZN15BBSDirectServer9post_todoEiiP9bbsmpibuf
_ZN15BBSDirectServerC1Ev
_ZN15BBSDirectServerC2Ev
_ZN15BBSDirectServerD0Ev
_ZN15BBSDirectServerD1Ev
_ZN15BBSDirectServerD2Ev
_ZN15BBSS_TxtFileOut1dEiPd
_ZN15BBSS_TxtFileOut1dEiRd
_ZN15BBSS_TxtFileOut1iERii
_ZN15BBSS_TxtFileOut1sEPci
_ZN15BBSS_TxtFileOut4typeEv
_ZN15BBSS_TxtFileOutC1EPKc
_ZN15BBSS_TxtFileOutC2EPKc
_ZN15BBSS_TxtFileOutD0Ev
_ZN15BBSS_TxtFileOutD1Ev
_ZN15BBSS_TxtFileOutD2Ev
_ZN15ClassObservable6AttachEP9cTemplateP10ivObserver
_ZN15ClassObservable6DetachEP9cTemplateP10ivObserver
_ZN15ClassObservable6attachEP10ivObserver
_ZN15ClassObservable6detachEP10ivObserver
_ZN15ClassObservableC1EP9cTemplate
_ZN15ClassObservableC2EP9cTemplate
_ZN15ClassObservableD0Ev
_ZN15ClassObservableD1Ev
_ZN15ClassObservableD2Ev
_ZN15CvodeThreadData16delete_memb_listEP10CvMembList
_ZN15CvodeThreadDataC1Ev
_ZN15CvodeThreadDataC2Ev
_ZN15CvodeThreadDataD0Ev
_ZN15CvodeThreadDataD1Ev
_ZN15CvodeThreadDataD2Ev
_ZN15DWList_IteratorC1ERK6DWList
_ZN15DWList_IteratorC2ERK6DWList
_ZN15DiscreteUniformD0Ev
_ZN15DiscreteUniformD1Ev
_ZN15DiscreteUniformclEv
_ZN15FInitialHandler8fihlist_E
_ZN15FInitialHandlerC1EiPKcP6ObjectS3_
_ZN15FInitialHandlerC2EiPKcP6ObjectS3_
_ZN15FInitialHandlerD0Ev
_ZN15FInitialHandlerD1Ev
_ZN15FInitialHandlerD2Ev
_ZN15ForwardScroller6adjustEv
_ZN15ForwardScrollerC1EP7ivGlyphP7ivStyleP15ivTelltaleStateP12ivAdjustablej
_ZN15ForwardScrollerC2EP7ivGlyphP7ivStyleP15ivTelltaleStateP12ivAdjustablej
_ZN15ForwardScrollerD0Ev
_ZN15ForwardScrollerD1Ev
_ZN15ForwardScrollerD2Ev
_ZN15GLineRecordList6insertElP11GLineRecord
_ZN15HocDataPathImpl12search_pysecEv
_ZN15HocDataPathImpl14search_vectorsEv
_ZN15HocDataPathImpl5foundEPPcPKcP6Symbol
_ZN15HocDataPathImpl5foundEPdPKcP6Symbol
_ZN15HocDataPathImpl6searchEP10ObjectdataP7Symlist
_ZN15HocDataPathImpl6searchEP13Point_processP6Symbol
_ZN15HocDataPathImpl6searchEP4Noded
_ZN15HocDataPathImpl6searchEP4Propd
_ZN15HocDataPathImpl6searchEP7Section
_ZN15HocDataPathImpl6searchEv
_ZN15HocDataPathImpl7found_vEPvPKcP6Symbol
_ZN15HocDataPathImplC1Eii
_ZN15HocDataPathImplC2Eii
_ZN15HocDataPathImplD1Ev
_ZN15HocDataPathImplD2Ev
_ZN15LinearMechanism10disconnectEP12ivObservable
_ZN15LinearMechanism11update_ptrsEv
_ZN15LinearMechanism6createEv
_ZN15LinearMechanism6lmfreeEv
_ZN15LinearMechanism6updateEP12ivObservable
_ZN15LinearMechanismC1Ev
_ZN15LinearMechanismC2Ev
_ZN15LinearMechanismD0Ev
_ZN15LinearMechanismD1Ev
_ZN15LinearMechanismD2Ev
_ZN15MFKitForegroundC1EP7ivGlyphPK7ivColor
_ZN15MFKitForegroundC2EP7ivGlyphPK7ivColor
_ZN15MFKitForegroundD0Ev
_ZN15MFKitForegroundD1Ev
_ZN15MFKitForegroundD2Ev
_ZN15MWcursorPtrList6insertElP8ivCursor
_ZN15MWfamilyPtrList6insertElPc
_ZN15NewLabelHandler5eventER7ivEvent
_ZN15NewLabelHandlerC1EP5Graphff
_ZN15NewLabelHandlerC2EP5Graphff
_ZN15NewLabelHandlerD0Ev
_ZN15NewLabelHandlerD1Ev
_ZN15NewLabelHandlerD2Ev
_ZN15NrnPropertyImplC1EP4Prop
_ZN15NrnPropertyImplC2EP4Prop
_ZN15NrnPropertyImplD1Ev
_ZN15NrnPropertyImplD2Ev
_ZN15OcBrowserAccept7executeEv
_ZN15OcBrowserAcceptC1EP9OcBrowser
_ZN15OcBrowserAcceptC2EP9OcBrowser
_ZN15OcBrowserAcceptD0Ev
_ZN15OcBrowserAcceptD1Ev
_ZN15OcBrowserAcceptD2Ev
_ZN15OcTelltaleGroup6removeEP15ivTelltaleState
_ZN15OcTelltaleGroup6updateEP15ivTelltaleState
_ZN15OcTelltaleGroup7restoreEv
_ZN15OcTelltaleGroupC1Ev
_ZN15OcTelltaleGroupC2Ev
_ZN15OcTelltaleGroupD0Ev
_ZN15OcTelltaleGroupD1Ev
_ZN15OcTelltaleGroupD2Ev
_ZN15PPList_IteratorC1ERK6PPList
_ZN15PPList_IteratorC2ERK6PPList
_ZN15PlayRecordEvent12frecord_initEP6TQItem
_ZN15PlayRecordEvent14savestate_readEP6_iobuf
_ZN15PlayRecordEvent14savestate_saveEv
_ZN15PlayRecordEvent15savestate_writeEP6_iobuf
_ZN15PlayRecordEvent16playrecord_send_E
_ZN15PlayRecordEvent17savestate_restoreEdP8NetCvode
_ZN15PlayRecordEvent19playrecord_deliver_E
_ZN15PlayRecordEvent2prEPKcdP8NetCvode
_ZN15PlayRecordEvent4typeEv
_ZN15PlayRecordEvent6threadEv
_ZN15PlayRecordEvent7deliverEdP8NetCvodeP9NrnThread
_ZN15PlayRecordEventC1Ev
_ZN15PlayRecordEventC2Ev
_ZN15PlayRecordEventD0Ev
_ZN15PlayRecordEventD1Ev
_ZN15PlayRecordEventD2Ev
_ZN15PortablePointer3setEPvim
_ZN15PortablePointerC1EPvim
_ZN15PortablePointerC1Ev
_ZN15PortablePointerC2EPvim
_ZN15PortablePointerC2Ev
_ZN15PortablePointerD0Ev
_ZN15PortablePointerD1Ev
_ZN15PortablePointerD2Ev
_ZN15PrintableWindow10intercept_E
_ZN15PrintableWindow10map_notifyEv
_ZN15PrintableWindow11print_glyphEv
_ZN15PrintableWindow12reconfiguredEv
_ZN15PrintableWindow12unmap_notifyEv
_ZN15PrintableWindow16default_geometryEv
_ZN15PrintableWindow17request_on_resizeEb
_ZN15PrintableWindow3mapEv
_ZN15PrintableWindow4hideEv
_ZN15PrintableWindow4typeEPKc
_ZN15PrintableWindow5unmapEv
_ZN15PrintableWindow5xmoveEii
_ZN15PrintableWindow6xplaceEii
_ZN15PrintableWindow7leader_E
_ZN15PrintableWindow7receiveERK7ivEvent
_ZN15PrintableWindow9interceptEP16OcGlyphContainer
_ZN15PrintableWindowC1EP7OcGlyph
_ZN15PrintableWindowC2EP7OcGlyph
_ZN15PrintableWindowD0Ev
_ZN15PrintableWindowD1Ev
_ZN15PrintableWindowD2Ev
_ZN15PrinterInfoList10remove_allEv
_ZN15PrinterInfoList6insertElRK11PrinterInfo
_ZN15PrinterInfoList6removeEl
_ZN15PrinterInfoListC1El
_ZN15PrinterInfoListC2El
_ZN15PrinterInfoListD1Ev
_ZN15PrinterInfoListD2Ev
_ZN15SMFKitCheckmarkC1EP15ivTelltaleStateP10SMFKitInfoPK6ivFont
_ZN15SMFKitCheckmarkC2EP15ivTelltaleStateP10SMFKitInfoPK6ivFont
_ZN15SMFKitCheckmarkD0Ev
_ZN15SMFKitCheckmarkD1Ev
_ZN15SMFKitCheckmarkD2Ev
_ZN15SMFKitIndicatorC1EP15ivTelltaleStateP10SMFKitInfo
_ZN15SMFKitIndicatorC2EP15ivTelltaleStateP10SMFKitInfo
_ZN15SMFKitIndicatorD0Ev
_ZN15SMFKitIndicatorD1Ev
_ZN15SMFKitIndicatorD2Ev
_ZN15SMFKitRadioFlagC1EP15ivTelltaleStateP10SMFKitInfoPK6ivFont
_ZN15SMFKitRadioFlagC2EP15ivTelltaleStateP10SMFKitInfoPK6ivFont
_ZN15SMFKitRadioFlagD0Ev
_ZN15SMFKitRadioFlagD1Ev
_ZN15SMFKitRadioFlagD2Ev
_ZN15SMFKitRadioItemC1EP15ivTelltaleStateP10SMFKitInfoPK6ivFont
_ZN15SMFKitRadioItemC2EP15ivTelltaleStateP10SMFKitInfoPK6ivFont
_ZN15SMFKitRadioItemD0Ev
_ZN15SMFKitRadioItemD1Ev
_ZN15SMFKitRadioItemD2Ev
_ZN15ScenePickerImpl10info_indexEPKc
_ZN15ScenePickerImpl5eventER7ivEvent
_ZN15ScenePickerImpl7window_E
_ZN15ScenePickerImplC1EP5Scene
_ZN15ScenePickerImplC2EP5Scene
_ZN15ScenePickerImplD0Ev
_ZN15ScenePickerImplD1Ev
_ZN15ScenePickerImplD2Ev
_ZN15TBScrollBoxList10remove_allEv
_ZN15TBScrollBoxList6insertElRK15TBScrollBoxInfo
_ZN15TBScrollBoxList6removeEl
_ZN15TBScrollBoxListC1El
_ZN15TBScrollBoxListC2El
_ZN15TBScrollBoxListD1Ev
_ZN15TBScrollBoxListD2Ev
_ZN15TextActionArray6insertElP8ivAction
_ZN15VecPlayStepSave14savestate_readEP6_iobuf
_ZN15VecPlayStepSave15savestate_writeEP6_iobuf
_ZN15VecPlayStepSave17savestate_restoreEv
_ZN15VecPlayStepSaveC1EP10PlayRecord
_ZN15VecPlayStepSaveC2EP10PlayRecord
_ZN15VecPlayStepSaveD0Ev
_ZN15VecPlayStepSaveD1Ev
_ZN15VecPlayStepSaveD2Ev
_ZN15VecRecordDtSave17savestate_restoreEv
_ZN15VecRecordDtSaveC1EP10PlayRecord
_ZN15VecRecordDtSaveC2EP10PlayRecord
_ZN15VecRecordDtSaveD0Ev
_ZN15VecRecordDtSaveD1Ev
_ZN15VecRecordDtSaveD2Ev
_ZN15geometry3d_Cone15signed_distanceEddd
_ZN15geometry3d_ConeC1Edddddddd
_ZN15geometry3d_ConeC2Edddddddd
_ZN15ivActiveHandler4dragERK7ivEvent
_ZN15ivActiveHandler4moveERK7ivEvent
_ZN15ivActiveHandler5enterEv
_ZN15ivActiveHandler5leaveEv
_ZN15ivActiveHandler6undrawEv
_ZN15ivActiveHandlerC1EP7ivGlyphP7ivStyle
_ZN15ivActiveHandlerC2EP7ivGlyphP7ivStyle
_ZN15ivActiveHandlerD0Ev
_ZN15ivActiveHandlerD1Ev
_ZN15ivActiveHandlerD2Ev
_ZN15ivDialogKitImpl8make_kitEv
_ZN15ivDialogKitImpl9instance_E
_ZN15ivFontFamilyRep10name_list_E
_ZN15ivFontFamilyRep4fontEiPKcRS1_Rf
_ZN15ivFontFamilyRepC1EPKc
_ZN15ivFontFamilyRepC2EPKc
_ZN15ivFontFamilyRepD1Ev
_ZN15ivFontFamilyRepD2Ev
_ZN15ivManagedWindow11focus_eventEP9ivHandlerS1_
_ZN15ivManagedWindow11icon_bitmapEP8ivBitmap
_ZN15ivManagedWindow16compute_geometryEv
_ZN15ivManagedWindow4iconEPS_
_ZN15ivManagedWindow6resizeEv
_ZN15ivManagedWindow7iconifyEv
_ZN15ivManagedWindow7receiveERK7ivEvent
_ZN15ivManagedWindow9deiconifyEv
_ZN15ivManagedWindow9icon_maskEP8ivBitmap
_ZN15ivManagedWindow9set_propsEv
_ZN15ivManagedWindow9wm_deleteEP9ivHandler
_ZN15ivManagedWindowC1EP7ivGlyph
_ZN15ivManagedWindowC2EP7ivGlyph
_ZN15ivManagedWindowD0Ev
_ZN15ivManagedWindowD1Ev
_ZN15ivManagedWindowD2Ev
_ZN15ivNaturalLayout7requestElPK13ivRequisitionRS0_
_ZN15ivNaturalLayout8allocateERK12ivAllocationlPK13ivRequisitionPS0_
_ZN15ivNaturalLayoutC1Ejf
_ZN15ivNaturalLayoutC2Ejf
_ZN15ivNaturalLayoutD0Ev
_ZN15ivNaturalLayoutD1Ev
_ZN15ivNaturalLayoutD2Ev
_ZN15ivPolyGlyphImplC1El
_ZN15ivPolyGlyphImplC2El
_ZN15ivTelltaleGroup6removeEP15ivTelltaleState
_ZN15ivTelltaleGroup6updateEP15ivTelltaleState
_ZN15ivTelltaleGroupC1Ev
_ZN15ivTelltaleGroupC2Ev
_ZN15ivTelltaleGroupD0Ev
_ZN15ivTelltaleGroupD1Ev
_ZN15ivTelltaleGroupD2Ev
_ZN15ivTelltaleState11leave_groupEv
_ZN15ivTelltaleState3setEjb
_ZN15ivTelltaleState4joinEP15ivTelltaleGroup
_ZN15ivTelltaleStateC1Ej
_ZN15ivTelltaleStateC2Ej
_ZN15ivTelltaleStateD0Ev
_ZN15ivTelltaleStateD1Ev
_ZN15ivTelltaleStateD2Ev
_ZN15ivWidgetKitImpl11begin_styleEPKcS1_j
_ZN15ivWidgetKitImpl12report_errorEP9ivSessionPKcRK8osStringS3_
_ZN15ivWidgetKitImpl13label_shadingEv
_ZN15ivWidgetKitImpl16end_button_styleEP7ivGlyphP15ivTelltaleStateP8ivAction
_ZN15ivWidgetKitImpl17build_fancy_labelEP7ivGlyphS1_S1_
_ZN15ivWidgetKitImpl17update_style_infoEv
_ZN15ivWidgetKitImpl19end_menu_item_styleEP7ivGlyphP15ivTelltaleState
_ZN15ivWidgetKitImpl21begin_check_box_styleEv
_ZN15ivWidgetKitImpl21begin_menu_item_styleEv
_ZN15ivWidgetKitImpl23begin_push_button_styleEv
_ZN15ivWidgetKitImpl24begin_menubar_item_styleEv
_ZN15ivWidgetKitImpl24begin_radio_button_styleEP15ivTelltaleGroup
_ZN15ivWidgetKitImpl26begin_default_button_styleEv
_ZN15ivWidgetKitImpl26begin_palette_button_styleEv
_ZN15ivWidgetKitImpl27begin_check_menu_item_styleEv
_ZN15ivWidgetKitImpl27begin_radio_menu_item_styleEP15ivTelltaleGroup
_ZN15ivWidgetKitImpl31begin_menu_item_separator_styleEv
_ZN15ivWidgetKitImpl4kit_E
_ZN15ivWidgetKitImpl5styleEP7ivStyle
_ZN15ivWidgetKitImpl5styleEv
_ZN15ivWidgetKitImpl7updatedEv
_ZN15ivWidgetKitImpl8make_kitEv
_ZN15ivWidgetKitImplC1Ev
_ZN15ivWidgetKitImplC2Ev
_ZN15ivWidgetKitImplD1Ev
_ZN15ivWidgetKitImplD2Ev
_ZN15osDirectoryImpl10overflows_E
_ZN15osDirectoryImpl12expand_tildeEPKci
_ZN15osDirectoryImpl13eliminate_dotEPKc
_ZN15osDirectoryImpl15interpret_tildeEPKc
_ZN15osDirectoryImpl17eliminate_dot_dotEPKc
_ZN15osDirectoryImpl21interpret_slash_slashEPKc
_ZN15osDirectoryImpl23collapsed_dot_dot_slashEPcRS0_
_ZN15osDirectoryImpl4homeEPKc
_ZN15osDirectoryImpl5ifdirEPKc
_ZN15osDirectoryImpl6filledEv
_ZN15osDirectoryImpl7do_fillEv
_ZN15osDirectoryImpl9real_pathEPKc
_ZN15osDirectoryImplC1EPvP8osString
_ZN15osDirectoryImplC2EPvP8osString
_ZN15osDirectoryImplD1Ev
_ZN15osDirectoryImplD2Ev
_ZN16BackwardScroller6adjustEv
_ZN16BackwardScrollerC1EP7ivGlyphP7ivStyleP15ivTelltaleStateP12ivAdjustablej
_ZN16BackwardScrollerC2EP7ivGlyphP7ivStyleP15ivTelltaleStateP12ivAdjustablej
_ZN16BackwardScrollerD0Ev
_ZN16BackwardScrollerD1Ev
_ZN16BackwardScrollerD2Ev
_ZN16ColorBrushWidget3mapEv
_ZN16ColorBrushWidget5startEP5Graph
_ZN16ColorBrushWidget6updateEP12ivObservable
_ZN16ColorBrushWidget7executeEv
_ZN16ColorBrushWidgetC1EP5Graph
_ZN16ColorBrushWidgetC2EP5Graph
_ZN16ColorBrushWidgetD0Ev
_ZN16ColorBrushWidgetD1Ev
_ZN16ColorBrushWidgetD2Ev
_ZN16HocCommandAction7executeEv
_ZN16HocCommandActionC1EP10HocCommand
_ZN16HocCommandActionC2EP10HocCommand
_ZN16HocCommandActionD0Ev
_ZN16HocCommandActionD1Ev
_ZN16HocCommandActionD2Ev
_ZN16HocEditorForItem4dragERK7ivEvent
_ZN16HocEditorForItem5pressERK7ivEvent
_ZN16HocEditorForItem7releaseERK7ivEvent
_ZN16HocEditorForItem7val_incERK7ivEvent
_ZN16HocEditorForItem8focus_inEv
_ZN16HocEditorForItem9focus_outEv
_ZN16HocEditorForItem9keystrokeERK7ivEvent
_ZN16HocEditorForItemC1EP12HocValEditorP12HocValAction
_ZN16HocEditorForItemC2EP12HocValEditorP12HocValAction
_ZN16HocEditorForItemD0Ev
_ZN16HocEditorForItemD1Ev
_ZN16HocEditorForItemD2Ev
_ZN16HocStateMenuItem11update_ptrsEv
_ZN16HocStateMenuItem13button_actionEv
_ZN16HocStateMenuItem13check_pointerEPvi
_ZN16HocStateMenuItem15update_hoc_itemEv
_ZN16HocStateMenuItem5writeERSo
_ZN16HocStateMenuItem6chosenEv
_ZN16HocStateMenuItem9data_pathEP12HocDataPathsb
_ZN16HocStateMenuItemC1EPdPKcP10ivMenuItemP9HocActionP7HocItemP6Object
_ZN16HocStateMenuItemC2EPdPKcP10ivMenuItemP9HocActionP7HocItemP6Object
_ZN16HocStateMenuItemD0Ev
_ZN16HocStateMenuItemD1Ev
_ZN16HocStateMenuItemD2Ev
_ZN16InputHandlerList6insertElP14ivInputHandler
_ZN16KSSingleNodeData2prEPKcdP8NetCvode
_ZN16KSSingleNodeData7deliverEdP8NetCvodeP9NrnThread
_ZN16KSSingleNodeDataC1Ev
_ZN16KSSingleNodeDataC2Ev
_ZN16KSSingleNodeDataD0Ev
_ZN16KSSingleNodeDataD1Ev
_ZN16KSSingleNodeDataD2Ev
_ZN16LineList_UpdaterC1ER8LineList
_ZN16LineList_UpdaterC2ER8LineList
_ZN16LineRubberMarker4drawEff
_ZN16LineRubberMarker5eventER7ivEvent
_ZN16LineRubberMarker6undrawEff
_ZN16LineRubberMarkerC1EP9GPolyLineP12RubberActionP8ivCanvas
_ZN16LineRubberMarkerC1EffP12RubberActionP8ivCanvas
_ZN16LineRubberMarkerC2EP9GPolyLineP12RubberActionP8ivCanvas
_ZN16LineRubberMarkerC2EffP12RubberActionP8ivCanvas
_ZN16LineRubberMarkerD0Ev
_ZN16LineRubberMarkerD1Ev
_ZN16LineRubberMarkerD2Ev
_ZN16MWhandlerPtrList6insertElP9ivHandler
_ZN16MacPrinterCanvas10setmapmodeEP5HDC__
_ZN16MacPrinterCanvas12GetPrinterDCEv
_ZN16MacPrinterCanvas3getEv
_ZN16MacPrinterCanvas4sizeEff
_ZN16MacPrinterCanvas5psizeEii
_ZN16MacPrinterCanvas5setupEb
_ZN16MacPrinterCanvas5startEf
_ZN16MacPrinterCanvas6finishEv
_ZN16MacPrinterCanvas6resizeEffff
_ZN16MacPrinterCanvasC1Ev
_ZN16MacPrinterCanvasC2Ev
_ZN16MacPrinterCanvasD0Ev
_ZN16MacPrinterCanvasD1Ev
_ZN16MacPrinterCanvasD2Ev
_ZN16MultiSplitThread14bksub_backboneEP9NrnThread
_ZN16MultiSplitThread14bksub_subtreesEP9NrnThread
_ZN16MultiSplitThread15triang_backboneEP9NrnThread
_ZN16MultiSplitThread23triang_subtree2backboneEP9NrnThread
_ZN16MultiSplitThread26bksub_short_backbone_part1EP9NrnThread
_ZN16MultiSplitThread5bksubEP9NrnThread
_ZN16MultiSplitThread6triangEP9NrnThread
_ZN16MultiSplitThread7v_setupEP9NrnThread
_ZN16MultiSplitThread8del_sidAEv
_ZN16MultiSplitThreadC1Ev
_ZN16MultiSplitThreadC2Ev
_ZN16MultiSplitThreadD0Ev
_ZN16MultiSplitThreadD1Ev
_ZN16MultiSplitThreadD2Ev
_ZN16Objects_Iterator4nextEv
_ZN16Objects_IteratorC1ER7Objects
_ZN16Objects_IteratorC2ER7Objects
_ZN16OcGlyphContainer9interceptEb
_ZN16OcGlyphContainerC1Ev
_ZN16OcGlyphContainerC2Ev
_ZN16OcSectionBrowser14select_sectionEP7Section
_ZN16OcSectionBrowser17set_accept_actionEPKcP6Object
_ZN16OcSectionBrowser17set_select_actionEPKcP6Object
_ZN16OcSectionBrowser6acceptEv
_ZN16OcSectionBrowser6selectEl
_ZN16OcSectionBrowserC1EP6Object
_ZN16OcSectionBrowserC2EP6Object
_ZN16OcSectionBrowserD0Ev
_ZN16OcSectionBrowserD1Ev
_ZN16OcSectionBrowserD2Ev
_ZN16SymBrowserAccept7executeEv
_ZN16SymBrowserAcceptC1EP14SymChooserImpli
_ZN16SymBrowserAcceptC2EP14SymChooserImpli
_ZN16SymBrowserAcceptD0Ev
_ZN16SymBrowserAcceptD1Ev
_ZN16SymBrowserAcceptD2Ev
_ZN16SymChooserAction7executeEP10SymChooserb
_ZN16SymChooserActionC1Ev
_ZN16SymChooserActionC2Ev
_ZN16SymChooserActionD0Ev
_ZN16SymChooserActionD1Ev
_ZN16SymChooserActionD2Ev
_ZN16SymDirectoryImpl10disconnectEP12ivObservable
_ZN16SymDirectoryImpl11load_objectEv
_ZN16SymDirectoryImpl12load_aliasesEv
_ZN16SymDirectoryImpl12load_sectionEv
_ZN16SymDirectoryImpl13load_templateEv
_ZN16SymDirectoryImpl13make_pathnameEPKcS1_S1_i
_ZN16SymDirectoryImpl14load_mechanismEP4PropiPKc
_ZN16SymDirectoryImpl4loadEi
_ZN16SymDirectoryImpl4loadEiP7Symlist
_ZN16SymDirectoryImpl4sortEv
_ZN16SymDirectoryImpl6appendEP6Object
_ZN16SymDirectoryImpl6appendEP6SymbolP10ObjectdataP6Object
_ZN16SymDirectoryImpl6updateEP12ivObservable
_ZN16SymDirectoryImpl9un_appendEP6Object
_ZN16SymDirectoryImplD0Ev
_ZN16SymDirectoryImplD1Ev
_ZN16Symbols_Iterator4nextEv
_ZN16Symbols_IteratorC1ER7Symbols
_ZN16Symbols_IteratorC2ER7Symbols
_ZN16UniqueStringList6insertElP14osUniqueString
_ZN16WidgetKitOverlay4pickEP8ivCanvasRK12ivAllocationiR5ivHit
_ZN16WidgetKitOverlay8allocateEP8ivCanvasRK12ivAllocationR11ivExtension
_ZN16WidgetKitOverlayC1EP7ivGlyphS1_S1_
_ZN16WidgetKitOverlayC2EP7ivGlyphS1_S1_
_ZN16WidgetKitOverlayD0Ev
_ZN16WidgetKitOverlayD1Ev
_ZN16WidgetKitOverlayD2Ev
_ZN16geometry3d_Plane15signed_distanceEddd
_ZN16geometry3d_PlaneC1Edddddd
_ZN16geometry3d_PlaneC2Edddddd
_ZN16ivTopLevelWindow12group_leaderEP8ivWindow
_ZN16ivTopLevelWindow9set_propsEv
_ZN16ivTopLevelWindowC1EP7ivGlyph
_ZN16ivTopLevelWindowC2EP7ivGlyph
_ZN16ivTopLevelWindowD0Ev
_ZN16ivTopLevelWindowD1Ev
_ZN16ivTopLevelWindowD2Ev
_ZN16ivVariableLayout7requestElPK13ivRequisitionRS0_
_ZN16ivVariableLayout8allocateERK12ivAllocationlPK13ivRequisitionPS0_
_ZN16ivVariableLayoutC1Ejff
_ZN16ivVariableLayoutC2Ejff
_ZN16ivVariableLayoutD0Ev
_ZN16ivVariableLayoutD1Ev
_ZN16ivVariableLayoutD2Ev
_ZN17DeleteLineHandler5eventER7ivEvent
_ZN17DeleteLineHandlerC1EP9GPolyLine
_ZN17DeleteLineHandlerC2EP9GPolyLine
_ZN17DeleteLineHandlerD0Ev
_ZN17DeleteLineHandlerD1Ev
_ZN17DeleteLineHandlerD2Ev
_ZN17DismissableWindow13is_transient_E
_ZN17DismissableWindow14append_menubarEPKc
_ZN17DismissableWindow14set_attributesEv
_ZN17DismissableWindow22replace_dismiss_actionEP10WinDismiss
_ZN17DismissableWindow4nameEPKc
_ZN17DismissableWindow7dismissEv
_ZN17DismissableWindow9configureEv
_ZN17DismissableWindowC1EP7ivGlyphb
_ZN17DismissableWindowC2EP7ivGlyphb
_ZN17DismissableWindowD0Ev
_ZN17DismissableWindowD1Ev
_ZN17DismissableWindowD2Ev
_ZN17HocEditorTempData2snERK7ivEvent
_ZN17HocEditorTempData4initERK7ivEvent
_ZN17HocUpdateItemList6insertElP13HocUpdateItem
_ZN17LineList_IteratorC1ERK8LineList
_ZN17LineList_IteratorC2ERK8LineList
_ZN17MechanismStandard2inEP13Point_process
_ZN17MechanismStandard2inEP7Sectiond
_ZN17MechanismStandard2inEPS_
_ZN17MechanismStandard3getEPKci
_ZN17MechanismStandard3outEP13Point_process
_ZN17MechanismStandard3outEP7Sectiond
_ZN17MechanismStandard3outEPS_
_ZN17MechanismStandard3setEPKcdi
_ZN17MechanismStandard4nameEiRi
_ZN17MechanismStandard4nameEv
_ZN17MechanismStandard4saveEPKcPSo
_ZN17MechanismStandard5countEv
_ZN17MechanismStandard5mschkEPKc
_ZN17MechanismStandard5panelEPKc
_ZN17MechanismStandard6actionEPKcP6Object
_ZN17MechanismStandardC1EPKci
_ZN17MechanismStandardC2EPKci
_ZN17MechanismStandardD0Ev
_ZN17MechanismStandardD1Ev
_ZN17MechanismStandardD2Ev
_ZN17MultiSplitControl10multisplitEP7Sectiondii
_ZN17MultiSplitControl12reduce_solveEv
_ZN17MultiSplitControl12reduced_markEiiiPiS0_S0_
_ZN17MultiSplitControl13rt_map_updateEv
_ZN17MultiSplitControl14exchange_setupEv
_ZN17MultiSplitControl15matrix_exchangeEv
_ZN17MultiSplitControl16multisplit_clearEv
_ZN17MultiSplitControl21matrix_exchange_nocapEv
_ZN17MultiSplitControl21multisplit_adjust_rhsEP9NrnThread
_ZN17MultiSplitControl24multisplit_nocap_v_part1EP9NrnThread
_ZN17MultiSplitControl24multisplit_nocap_v_part2EP9NrnThread
_ZN17MultiSplitControl24multisplit_nocap_v_part3EP9NrnThread
_ZN17MultiSplitControl4pmatEb
_ZN17MultiSplitControl5pexchEv
_ZN17MultiSplitControl5pmat1EPKc
_ZN17MultiSplitControl5pmatfEb
_ZN17MultiSplitControl5solveEv
_ZN17MultiSplitControl7v_setupEv
_ZN17MultiSplitControl8del_mstiEv
_ZN17MultiSplitControl8prstructEv
_ZN17MultiSplitControlC1Ev
_ZN17MultiSplitControlC2Ev
_ZN17MultiSplitControlD0Ev
_ZN17MultiSplitControlD1Ev
_ZN17MultiSplitControlD2Ev
_ZN17PRtransformerList10remove_allEv
_ZN17PRtransformerList6insertElRK13ivTransformer
_ZN17PRtransformerList6removeEl
_ZN17PRtransformerListC1El
_ZN17PRtransformerListC2El
_ZN17PRtransformerListD1Ev
_ZN17PRtransformerListD2Ev
_ZN17PanelInputHandler16handle_old_focusEv
_ZN17PanelInputHandler4pickEP8ivCanvasRK12ivAllocationiR5ivHit
_ZN17PanelInputHandler5focusEP14ivInputHandler
_ZN17PanelInputHandler5sema_E
_ZN17PanelInputHandler6focus_E
_ZN17PanelInputHandlerC1EP7ivGlyphP7ivStyle
_ZN17PanelInputHandlerC2EP7ivGlyphP7ivStyle
_ZN17PanelInputHandlerD0Ev
_ZN17PanelInputHandlerD1Ev
_ZN17PanelInputHandlerD2Ev
_ZN17PaperItem_handler11move_actionEff
_ZN17PaperItem_handler13resize_actionEff
_ZN17PaperItem_handler5eventER7ivEvent
_ZN17PaperItem_handlerC1EiffP9PaperItemRK13ivTransformer
_ZN17PaperItem_handlerC2EiffP9PaperItemRK13ivTransformer
_ZN17PaperItem_handlerD0Ev
_ZN17PaperItem_handlerD1Ev
_ZN17PaperItem_handlerD2Ev
_ZN17PointProcessGlyph6objectEv
_ZN17PointProcessGlyphC1EP6Object
_ZN17PointProcessGlyphC2EP6Object
_ZN17PointProcessGlyphD0Ev
_ZN17PointProcessGlyphD1Ev
_ZN17PointProcessGlyphD2Ev
_ZN17SMFKitButtonFrame4pickEP8ivCanvasRK12ivAllocationiR5ivHit
_ZN17SMFKitButtonFrameC1EP7ivGlyphP15ivTelltaleStateP10SMFKitInfofff
_ZN17SMFKitButtonFrameC2EP7ivGlyphP15ivTelltaleStateP10SMFKitInfofff
_ZN17SMFKitButtonFrameD0Ev
_ZN17SMFKitButtonFrameD1Ev
_ZN17SMFKitButtonFrameD2Ev
_ZN17ScreenItemHandler11move_actionEbff
_ZN17ScreenItemHandler5eventER7ivEvent
_ZN17ScreenItemHandlerC1EffP10ScreenItemRK13ivTransformer
_ZN17ScreenItemHandlerC2EffP10ScreenItemRK13ivTransformer
_ZN17ScreenItemHandlerD0Ev
_ZN17ScreenItemHandlerD1Ev
_ZN17ScreenItemHandlerD2Ev
_ZN17StepperMenuAction7executeEv
_ZN17StepperMenuActionC1Ebd
_ZN17StepperMenuActionC2Ebd
_ZN17StepperMenuActionD0Ev
_ZN17StepperMenuActionD1Ev
_ZN17StepperMenuActionD2Ev
_ZN17StyleList_UpdaterC1ER9StyleList
_ZN17StyleList_UpdaterC2ER9StyleList
_ZN17VecPlayContinuous10continuousEd
_ZN17VecPlayContinuous10disconnectEP12ivObservable
_ZN17VecPlayContinuous11interpolateEd
_ZN17VecPlayContinuous14savestate_saveEv
_ZN17VecPlayContinuous2prEv
_ZN17VecPlayContinuous4initEP8IvocVectS1_S1_
_ZN17VecPlayContinuous4typeEv
_ZN17VecPlayContinuous4usesEPv
_ZN17VecPlayContinuous5eventEv
_ZN17VecPlayContinuous6searchEd
_ZN17VecPlayContinuous7deliverEdP8NetCvode
_ZN17VecPlayContinuous7installEP5Cvode
_ZN17VecPlayContinuous9play_initEv
_ZN17VecPlayContinuousC1EPKcP8IvocVectS3_S3_P6Object
_ZN17VecPlayContinuousC1EPdP8IvocVectS2_S2_P6Object
_ZN17VecPlayContinuousC2EPKcP8IvocVectS3_S3_P6Object
_ZN17VecPlayContinuousC2EPdP8IvocVectS2_S2_P6Object
_ZN17VecPlayContinuousD0Ev
_ZN17VecPlayContinuousD1Ev
_ZN17VecPlayContinuousD2Ev
_ZN17VecRecordDiscrete10disconnectEP12ivObservable
_ZN17VecRecordDiscrete11record_initEv
_ZN17VecRecordDiscrete12frecord_initEP6TQItem
_ZN17VecRecordDiscrete14savestate_saveEv
_ZN17VecRecordDiscrete4typeEv
_ZN17VecRecordDiscrete4usesEPv
_ZN17VecRecordDiscrete5eventEv
_ZN17VecRecordDiscrete7deliverEdP8NetCvode
_ZN17VecRecordDiscrete7installEP5Cvode
_ZN17VecRecordDiscreteC1EPdP8IvocVectS2_P6Object
_ZN17VecRecordDiscreteC2EPdP8IvocVectS2_P6Object
_ZN17VecRecordDiscreteD0Ev
_ZN17VecRecordDiscreteD1Ev
_ZN17VecRecordDiscreteD2Ev
_ZN17geometry3d_Sphere15signed_distanceEddd
_ZN17geometry3d_SphereC1Edddd
_ZN17geometry3d_SphereC2Edddd
_ZN17ivAllocationTable5flushEv
_ZN17ivAllocationTable8allocateEP8ivCanvasRK12ivAllocation
_ZN17ivAllocationTableC1Ell
_ZN17ivAllocationTableC2Ell
_ZN17ivAllocationTableD0Ev
_ZN17ivAllocationTableD1Ev
_ZN17ivAllocationTableD2Ev
_ZN17ivFileBrowserImpl10next_focusEv
_ZN17ivFileBrowserImpl10select_allEv
_ZN17ivFileBrowserImpl10select_topEv
_ZN17ivFileBrowserImpl11scroll_downEv
_ZN17ivFileBrowserImpl11select_nextEv
_ZN17ivFileBrowserImpl12half_page_upEv
_ZN17ivFileBrowserImpl12unselect_allEv
_ZN17ivFileBrowserImpl13select_bottomEv
_ZN17ivFileBrowserImpl14half_page_downEv
_ZN17ivFileBrowserImpl14scroll_to_lastEv
_ZN17ivFileBrowserImpl15scroll_to_firstEv
_ZN17ivFileBrowserImpl15select_previousEv
_ZN17ivFileBrowserImpl17rate_scroll_timerEll
_ZN17ivFileBrowserImpl4openEv
_ZN17ivFileBrowserImpl6cancelEv
_ZN17ivFileBrowserImpl7page_upEv
_ZN17ivFileBrowserImpl9page_downEv
_ZN17ivFileBrowserImpl9scroll_upEv
_ZN17ivFileChooserImpl10accept_dirEv
_ZN17ivFileChooserImpl10add_filterEP7ivStylePKcS3_S3_S3_P7ivGlyphP19ivFieldEditorAction
_ZN17ivFileChooserImpl13accept_editorEP13ivFieldEditor
_ZN17ivFileChooserImpl13accept_filterEP13ivFieldEditor
_ZN17ivFileChooserImpl13cancel_editorEP13ivFieldEditor
_ZN17ivFileChooserImpl13disable_colorEv
_ZN17ivFileChooserImpl14accept_browserEv
_ZN17ivFileChooserImpl14cancel_browserEv
_ZN17ivFileChooserImpl4initEP13ivFileChooserP7ivStyleP19ivFileChooserAction
_ZN17ivFileChooserImpl4loadEv
_ZN17ivFileChooserImpl5buildEv
_ZN17ivFileChooserImpl5chdirERK8osString
_ZN17ivFileChooserImpl5clearEv
_ZN17ivFileChooserImpl6fcfreeEv
_ZN17ivFileChooserImpl8filteredERK8osStringP13ivFieldEditor
_ZN17ivMacroActionList6insertElP8ivAction
_ZN17ivTBScrollBoxImpl10reallocateEv
_ZN17ivTBScrollBoxImpl12undraw_rangeEll
_ZN17ivTBScrollBoxImpl5checkEP8ivCanvasRK12ivAllocation
_ZN17ivTBScrollBoxImpl6redrawEv
_ZN17ivTBScrollBoxImpl7refreshEv
_ZN17ivTransformFitterC1EP7ivGlyph
_ZN17ivTransformFitterC2EP7ivGlyph
_ZN17ivTransformFitterD0Ev
_ZN17ivTransformFitterD1Ev
_ZN17ivTransformFitterD2Ev
_ZN17ivTransformSetter11transformerERK13ivTransformer
_ZN17ivTransformSetter11transformerEv
_ZN17ivTransformSetter4pickEP8ivCanvasRK12ivAllocationiR5ivHit
_ZN17ivTransformSetter8allocateEP8ivCanvasRK12ivAllocationR11ivExtension
_ZN17ivTransformSetterC1EP7ivGlyph
_ZN17ivTransformSetterC1EP7ivGlyphRK13ivTransformer
_ZN17ivTransformSetterC2EP7ivGlyph
_ZN17ivTransformSetterC2EP7ivGlyphRK13ivTransformer
_ZN17ivTransformSetterD0Ev
_ZN17ivTransformSetterD1Ev
_ZN17ivTransformSetterD2Ev
_ZN17ivTransientWindow13transient_forEP8ivWindow
_ZN17ivTransientWindow14set_attributesEv
_ZN17ivTransientWindow9configureEv
_ZN17ivTransientWindowC1EP7ivGlyph
_ZN17ivTransientWindowC2EP7ivGlyph
_ZN17ivTransientWindowD0Ev
_ZN17ivTransientWindowD1Ev
_ZN17ivTransientWindowD2Ev
_ZN18AllocationInfoList6insertElP16ivAllocationInfo
_ZN18ButtonItemInfoList6insertElP14ButtonItemInfo
_ZN18ChangeLabelHandler5eventER7ivEvent
_ZN18ChangeLabelHandlerC1EP6GLabel
_ZN18ChangeLabelHandlerC2EP6GLabel
_ZN18ChangeLabelHandlerD0Ev
_ZN18ChangeLabelHandlerD1Ev
_ZN18ChangeLabelHandlerD2Ev
_ZN18DeleteLabelHandler5eventER7ivEvent
_ZN18DeleteLabelHandlerC1EP6GLabel
_ZN18DeleteLabelHandlerC2EP6GLabel
_ZN18DeleteLabelHandlerD0Ev
_ZN18DeleteLabelHandlerD1Ev
_ZN18DeleteLabelHandlerD2Ev
_ZN18HocDefaultCheckbox7releaseERK7ivEvent
_ZN18HocDefaultCheckbox8instanceEP19HocDefaultValEditor
_ZN18HocDefaultCheckboxC1EP19HocDefaultValEditorP7ivGlyphP7ivStyleP15ivTelltaleStateP8ivAction
_ZN18HocDefaultCheckboxC2EP19HocDefaultValEditorP7ivGlyphP7ivStyleP15ivTelltaleStateP8ivAction
_ZN18HocDefaultCheckboxD0Ev
_ZN18HocDefaultCheckboxD1Ev
_ZN18HocDefaultCheckboxD2Ev
_ZN18InstTable_Iterator4nextEv
_ZN18InstTable_IteratorC1ER9InstTable
_ZN18InstTable_IteratorC2ER9InstTable
_ZN18LabelChooserAction5stateEP15ivTelltaleState
_ZN18LabelChooserAction7executeEv
_ZN18LabelChooserActionC1EP6GLabel
_ZN18LabelChooserActionC2EP6GLabel
_ZN18LabelChooserActionD0Ev
_ZN18LabelChooserActionD1Ev
_ZN18LabelChooserActionD2Ev
_ZN18MWclipList_UpdaterC1ER10MWclipList
_ZN18MWclipList_UpdaterC2ER10MWclipList
_ZN18MWtransformPtrList6insertElP13ivTransformer
_ZN18NetConList_UpdaterC1ER10NetConList
_ZN18NetConList_UpdaterC2ER10NetConList
_ZN18NetCvodeThreadData16interthread_sendEdP13DiscreteEventP9NrnThread
_ZN18NetCvodeThreadData7enqueueEP8NetCvodeP9NrnThread
_ZN18NetCvodeThreadDataC1Ev
_ZN18NetCvodeThreadDataC2Ev
_ZN18NetCvodeThreadDataD0Ev
_ZN18NetCvodeThreadDataD1Ev
_ZN18NetCvodeThreadDataD2Ev
_ZN18SMFKitDefaultArrowC1EPK6ivFontP10SMFKitInfo
_ZN18SMFKitDefaultArrowC2EPK6ivFontP10SMFKitInfo
_ZN18SMFKitDefaultArrowD0Ev
_ZN18SMFKitDefaultArrowD1Ev
_ZN18SMFKitDefaultArrowD2Ev
_ZN18ScreenSceneHandler5eventER7ivEvent
_ZN18ScreenSceneHandlerC1Eff
_ZN18ScreenSceneHandlerC2Eff
_ZN18ScreenSceneHandlerD0Ev
_ZN18ScreenSceneHandlerD1Ev
_ZN18SectionBrowserImplC1Ev
_ZN18SectionBrowserImplC2Ev
_ZN18SectionBrowserImplD1Ev
_ZN18SectionBrowserImplD2Ev
_ZN18StyleAttributeList6insertElP14StyleAttribute
_ZN18StyleList_IteratorC1ERK9StyleList
_ZN18StyleList_IteratorC2ERK9StyleList
_ZN18SymbolList_UpdaterC1ER10SymbolList
_ZN18SymbolList_UpdaterC2ER10SymbolList
_ZN18VirtualWindowScale7executeEv
_ZN18VirtualWindowScaleC1Ef
_ZN18VirtualWindowScaleC2Ef
_ZN18VirtualWindowScaleD0Ev
_ZN18VirtualWindowScaleD1Ev
_ZN18WidgetKitStyleList6insertElP7ivStyle
_ZN18iv3_TextAnnotation7executeEv
_ZN18iv3_TextAnnotationC1Ev
_ZN18iv3_TextAnnotationC2Ev
_ZN18iv3_TextAnnotationD0Ev
_ZN18iv3_TextAnnotationD1Ev
_ZN18iv3_TextAnnotationD2Ev
_ZN18ivInputHandlerImpl10threshold_E
_ZN18ivInputHandlerImpl16most_recent_infoEv
_ZN18ivInputHandlerImpl2upER7ivEvent
_ZN18ivInputHandlerImpl4downER7ivEvent
_ZN18ivInputHandlerImpl4infoEP8ivCanvasRK12ivAllocation
_ZN18ivInputHandlerImpl5eventER7ivEvent
_ZN18ivInputHandlerImpl5resetEv
_ZN18ivInputHandlerImpl6insideERK7ivEventRK16ivAllocationInfob
_ZN18ivInputHandlerImpl6motionER7ivEvent
_ZN18ivInputHandlerImplC1EP14ivInputHandlerP7ivStyle
_ZN18ivInputHandlerImplC2EP14ivInputHandlerP7ivStyle
_ZN18ivInputHandlerImplD0Ev
_ZN18ivInputHandlerImplD1Ev
_ZN18ivInputHandlerImplD2Ev
_ZN18ivManagedWindowRep7WMcloseEyx
_ZN18ivManagedWindowRep8WMminmaxEyx
_ZN18ivManagedWindowRepC1EP15ivManagedWindow
_ZN18ivManagedWindowRepC2EP15ivManagedWindow
_ZN18ivManagedWindowRepD1Ev
_ZN18ivManagedWindowRepD2Ev
_ZN18ivTileFirstAligned7requestElPK13ivRequisitionRS0_
_ZN18ivTileFirstAligned8allocateERK12ivAllocationlPK13ivRequisitionPS0_
_ZN18ivTileFirstAlignedC1Ej
_ZN18ivTileFirstAlignedC2Ej
_ZN18ivTileFirstAlignedD0Ev
_ZN18ivTileFirstAlignedD1Ev
_ZN18ivTileFirstAlignedD2Ev
_ZN18osUniqueStringPool3addEPKcj
_ZN18osUniqueStringPoolC1Ej
_ZN18osUniqueStringPoolC2Ej
_ZN18osUniqueStringPoolD1Ev
_ZN18osUniqueStringPoolD2Ev
_ZN19ColorValueGlyphItemC1EPKcPK7ivColor
_ZN19ColorValueGlyphItemC2EPKcPK7ivColor
_ZN19ColorValueGlyphItemD0Ev
_ZN19ColorValueGlyphItemD1Ev
_ZN19ColorValueGlyphItemD2Ev
_ZN19HandlerList_UpdaterC1ER11HandlerList
_ZN19HandlerList_UpdaterC2ER11HandlerList
_ZN19HocDefaultValEditor10def_actionEv
_ZN19HocDefaultValEditor10def_changeEff
_ZN19HocDefaultValEditor11updateFieldEv
_ZN19HocDefaultValEditor22hoc_default_val_editorEv
_ZN19HocDefaultValEditor5defltEd
_ZN19HocDefaultValEditor7stepperEv
_ZN19HocDefaultValEditorC1EPKcS1_P10ValEdLabelP12HocValActionPdbP7HocItemP6Object
_ZN19HocDefaultValEditorC2EPKcS1_P10ValEdLabelP12HocValActionPdbP7HocItemP6Object
_ZN19HocDefaultValEditorD0Ev
_ZN19HocDefaultValEditorD1Ev
_ZN19HocDefaultValEditorD2Ev
_ZN19HocItemList_UpdaterC1ER11HocItemList
_ZN19HocItemList_UpdaterC2ER11HocItemList
_ZN19HocMenuList_UpdaterC1ER11HocMenuList
_ZN19HocMenuList_UpdaterC2ER11HocMenuList
_ZN19LinearModelAddition20jacobian_multiplier_Ev
_ZN19LinearModelAddition2f_ER8IvocVectS1_i
_ZN19LinearModelAddition6alloc_EiiiPP4NodePi
_ZN19LinearModelAddition9jacobian_ER8IvocVect
_ZN19LinearModelAdditionC1EP8OcMatrixS1_P8IvocVectS3_S3_iPP4NodeS3_P6Object
_ZN19LinearModelAdditionC2EP8OcMatrixS1_P8IvocVectS3_S3_iPP4NodeS3_P6Object
_ZN19LinearModelAdditionD0Ev
_ZN19LinearModelAdditionD1Ev
_ZN19LinearModelAdditionD2Ev
_ZN19MWclipList_IteratorC1ERK10MWclipList
_ZN19MWclipList_IteratorC2ERK10MWclipList
_ZN19NetConList_IteratorC1ERK10NetConList
_ZN19NetConList_IteratorC2ERK10NetConList
_ZN19PlayRecList_UpdaterC1ER11PlayRecList
_ZN19PlayRecList_UpdaterC2ER11PlayRecList
_ZN19PointProcessBrowser26make_point_process_browserEP6OcList
_ZN19PointProcessBrowser6acceptEv
_ZN19PointProcessBrowser6add_ppEP6Object
_ZN19PointProcessBrowser6selectEl
_ZN19PointProcessBrowser9append_ppEP6Object
_ZN19PointProcessBrowser9remove_ppEv
_ZN19PointProcessBrowserC1EP6OcList
_ZN19PointProcessBrowserC2EP6OcList
_ZN19PointProcessBrowserD0Ev
_ZN19PointProcessBrowserD1Ev
_ZN19PointProcessBrowserD2Ev
_ZN19SMFKitMenuItemFrameC1EP7ivGlyphP15ivTelltaleStateP10SMFKitInfo
_ZN19SMFKitMenuItemFrameC2EP7ivGlyphP15ivTelltaleStateP10SMFKitInfo
_ZN19SMFKitMenuItemFrameD0Ev
_ZN19SMFKitMenuItemFrameD1Ev
_ZN19SMFKitMenuItemFrameD2Ev
_ZN19ShapeChangeObserver5forceEv
_ZN19ShapeChangeObserver6updateEP12ivObservable
_ZN19ShapeChangeObserverC1EP10ShapeScene
_ZN19ShapeChangeObserverC2EP10ShapeScene
_ZN19ShapeChangeObserverD0Ev
_ZN19ShapeChangeObserverD1Ev
_ZN19ShapeChangeObserverD2Ev
_ZN19StyleAttributeTable15find_and_removeERP24StyleAttributeTableEntry14osUniqueString
_ZN19StyleAttributeTable4findERP24StyleAttributeTableEntry14osUniqueString
_ZN19StyleAttributeTable6insertE14osUniqueStringP24StyleAttributeTableEntry
_ZN19StyleAttributeTable6removeE14osUniqueString
_ZN19StyleAttributeTableC1Ei
_ZN19StyleAttributeTableC2Ei
_ZN19StyleAttributeTableD1Ev
_ZN19StyleAttributeTableD2Ev
_ZN19SymbolList_IteratorC1ERK10SymbolList
_ZN19SymbolList_IteratorC2ERK10SymbolList
_ZN19TextAnnotationArray6insertElP18iv3_TextAnnotation
_ZN19geometry3d_Cylinder15signed_distanceEddd
_ZN19geometry3d_CylinderC1Eddddddd
_ZN19geometry3d_CylinderC2Eddddddd
_ZN19ivApplicationWindow16compute_geometryEv
_ZN19ivApplicationWindow9set_propsEv
_ZN19ivApplicationWindowC1EP7ivGlyph
_ZN19ivApplicationWindowC2EP7ivGlyph
_ZN19ivApplicationWindowD0Ev
_ZN19ivApplicationWindowD1Ev
_ZN19ivApplicationWindowD2Ev
_ZN19ivFieldEditorAction6acceptEP13ivFieldEditor
_ZN19ivFieldEditorAction6cancelEP13ivFieldEditor
_ZN19ivFieldEditorActionC1Ev
_ZN19ivFieldEditorActionC2Ev
_ZN19ivFieldEditorActionD0Ev
_ZN19ivFieldEditorActionD1Ev
_ZN19ivFieldEditorActionD2Ev
_ZN19ivFileChooserAction7executeEP13ivFileChooserb
_ZN19ivFileChooserActionC1Ev
_ZN19ivFileChooserActionC2Ev
_ZN19ivFileChooserActionD0Ev
_ZN19ivFileChooserActionD1Ev
_ZN19ivFileChooserActionD2Ev
_ZN19osUniqueStringTable15find_and_removeER8osStringS0_
_ZN19osUniqueStringTable4findER8osStringS0_
_ZN19osUniqueStringTable6insertE8osStringS0_
_ZN19osUniqueStringTable6removeE8osString
_ZN19osUniqueStringTableC1Ei
_ZN19osUniqueStringTableC2Ei
_ZN19osUniqueStringTableD1Ev
_ZN19osUniqueStringTableD2Ev
_ZN1K15check_menu_itemEPKc
_ZN1K15radio_menu_itemEP15ivTelltaleGroupPKc
_ZN1K9menu_itemEPKc
_ZN20Graph_ActionCallback7executeEv
_ZN20Graph_ActionCallbackC1EP5GraphMS0_FvvE
_ZN20Graph_ActionCallbackC2EP5GraphMS0_FvvE
_ZN20Graph_ActionCallbackD0Ev
_ZN20Graph_ActionCallbackD1Ev
_ZN20HandlerList_IteratorC1ERK11HandlerList
_ZN20HandlerList_IteratorC2ERK11HandlerList
_ZN20HocItemList_IteratorC1ERK11HocItemList
_ZN20HocItemList_IteratorC2ERK11HocItemList
_ZN20HocMenuList_IteratorC1ERK11HocMenuList
_ZN20HocMenuList_IteratorC2ERK11HocMenuList
_ZN20HocPanelList_UpdaterC1ER12HocPanelList
_ZN20HocPanelList_UpdaterC2ER12HocPanelList
_ZN20MenuItemList_UpdaterC1ER12MenuItemList
_ZN20MenuItemList_UpdaterC2ER12MenuItemList
_ZN20PlayRecList_IteratorC1ERK11PlayRecList
_ZN20PlayRecList_IteratorC2ERK11PlayRecList
_ZN20ResourceList_UpdaterC1ER12ResourceList
_ZN20ResourceList_UpdaterC2ER12ResourceList
_ZN20StateTransitionEvent10deactivateEv
_ZN20StateTransitionEvent10transitionEiiPdS0_St10unique_ptrI10HocCommandSt14default_deleteIS2_EE
_ZN20StateTransitionEvent5stateEi
_ZN20StateTransitionEvent8activateEv
_ZN20StateTransitionEventC1EiP13Point_process
_ZN20StateTransitionEventC2EiP13Point_process
_ZN20StateTransitionEventD1Ev
_ZN20StateTransitionEventD2Ev
_ZN20__AnyPtrList_UpdaterC1ER12__AnyPtrList
_ZN20__AnyPtrList_UpdaterC2ER12__AnyPtrList
_ZN20iv3_TextLineAdjuster10addButtonsEv
_ZN20iv3_TextLineAdjuster11needButtonsEv
_ZN20iv3_TextLineAdjuster13removeButtonsEv
_ZN20iv3_TextLineAdjuster6updateEP12ivObservable
_ZN20iv3_TextLineAdjusterC1EP12iv3_TextLine
_ZN20iv3_TextLineAdjusterC2EP12iv3_TextLine
_ZN20iv3_TextLineAdjusterD0Ev
_ZN20iv3_TextLineAdjusterD1Ev
_ZN20iv3_TextLineAdjusterD2Ev
_ZN21HocPanelList_IteratorC1ERK12HocPanelList
_ZN21HocPanelList_IteratorC2ERK12HocPanelList
_ZN21MFKitInfoList_UpdaterC1ER13MFKitInfoList
_ZN21MFKitInfoList_UpdaterC2ER13MFKitInfoList
_ZN21MWcolorTable_Iterator4nextEv
_ZN21MWcolorTable_IteratorC1ER12MWcolorTable
_ZN21MWcolorTable_IteratorC2ER12MWcolorTable
_ZN21MenuItemList_IteratorC1ERK12MenuItemList
_ZN21MenuItemList_IteratorC2ERK12MenuItemList
_ZN21Multisend_Send_Phase211send_phase2EidP23Multisend_ReceiveBuffer
_ZN21Multisend_Send_Phase2D0Ev
_ZN21Multisend_Send_Phase2D1Ev
_ZN21Multisend_Send_Phase2D2Ev
_ZN21PolyGlyphList_UpdaterC1ER13PolyGlyphList
_ZN21PolyGlyphList_UpdaterC2ER13PolyGlyphList
_ZN21ResourceList_IteratorC1ERK12ResourceList
_ZN21ResourceList_IteratorC2ERK12ResourceList
_ZN21SMFKitPushButtonFrameC1EP7ivGlyphP15ivTelltaleStateP10SMFKitInfoP7ivStylefff
_ZN21SMFKitPushButtonFrameC2EP7ivGlyphP15ivTelltaleStateP10SMFKitInfoP7ivStylefff
_ZN21SMFKitPushButtonFrameD0Ev
_ZN21SMFKitPushButtonFrameD1Ev
_ZN21SMFKitPushButtonFrameD2Ev
_ZN21Scene_PtrList_UpdaterC1ER13Scene_PtrList
_ZN21Scene_PtrList_UpdaterC2ER13Scene_PtrList
_ZN21VecPlayContinuousSave14savestate_readEP6_iobuf
_ZN21VecPlayContinuousSave15savestate_writeEP6_iobuf
_ZN21VecPlayContinuousSave17savestate_restoreEv
_ZN21VecPlayContinuousSaveC1EP10PlayRecord
_ZN21VecPlayContinuousSaveC2EP10PlayRecord
_ZN21VecPlayContinuousSaveD0Ev
_ZN21VecPlayContinuousSaveD1Ev
_ZN21VecPlayContinuousSaveD2Ev
_ZN21VecRecordDiscreteSave14savestate_readEP6_iobuf
_ZN21VecRecordDiscreteSave15savestate_writeEP6_iobuf
_ZN21VecRecordDiscreteSave17savestate_restoreEv
_ZN21VecRecordDiscreteSaveC1EP10PlayRecord
_ZN21VecRecordDiscreteSaveC2EP10PlayRecord
_ZN21VecRecordDiscreteSaveD0Ev
_ZN21VecRecordDiscreteSaveD1Ev
_ZN21VecRecordDiscreteSaveD2Ev
_ZN21__AnyPtrList_IteratorC1ERK12__AnyPtrList
_ZN21__AnyPtrList_IteratorC2ERK12__AnyPtrList
_ZN21ivAllocationTableImpl8epsilon_E
_ZN21ivAllocationTableImplC1Ell
_ZN21ivAllocationTableImplC2Ell
_ZN21ivBrowserList_UpdaterC1ER13ivBrowserList
_ZN21ivBrowserList_UpdaterC2ER13ivBrowserList
_ZN22CopyStringList_UpdaterC1ER14CopyStringList
_ZN22CopyStringList_UpdaterC2ER14CopyStringList
_ZN22MFKitInfoList_IteratorC1ERK13MFKitInfoList
_ZN22MFKitInfoList_IteratorC2ERK13MFKitInfoList
_ZN22MWcontrolHWND_Iterator4nextEv
_ZN22MWcontrolHWND_IteratorC1ER13MWcontrolHWND
_ZN22MWcontrolHWND_IteratorC2ER13MWcontrolHWND
_ZN22PWMImpl_ActionCallback7executeEv
_ZN22PWMImpl_ActionCallbackC1EP7PWMImplMS0_FvvE
_ZN22PWMImpl_ActionCallbackC2EP7PWMImplMS0_FvvE
_ZN22PWMImpl_ActionCallbackD0Ev
_ZN22PWMImpl_ActionCallbackD1Ev
_ZN22PolyGlyphList_IteratorC1ERK13PolyGlyphList
_ZN22PolyGlyphList_IteratorC2ERK13PolyGlyphList
_ZN22PrintableWindowManager10disconnectEP12ivObservable
_ZN22PrintableWindowManager12reconfiguredEP15PrintableWindow
_ZN22PrintableWindowManager6appendEP15PrintableWindow
_ZN22PrintableWindowManager6removeEP15PrintableWindow
_ZN22PrintableWindowManager6updateEP12ivObservable
_ZN22PrintableWindowManager6xplaceEiib
_ZN22PrintableWindowManager7currentEv
_ZN22PrintableWindowManager7doprintEv
_ZN22PrintableWindowManager8current_E
_ZN22PrintableWindowManager8psfilterEPKc
_ZN22PrintableWindowManagerC1Ev
_ZN22PrintableWindowManagerC2Ev
_ZN22PrintableWindowManagerD0Ev
_ZN22PrintableWindowManagerD1Ev
_ZN22PrintableWindowManagerD2Ev
_ZN22SMFKitInfoList_UpdaterC1ER14SMFKitInfoList
_ZN22SMFKitInfoList_UpdaterC2ER14SMFKitInfoList
_ZN22SceneInfo_List_UpdaterC1ER14SceneInfo_List
_ZN22SceneInfo_List_UpdaterC2ER14SceneInfo_List
_ZN22Scene_PtrList_IteratorC1ERK13Scene_PtrList
_ZN22Scene_PtrList_IteratorC2ERK13Scene_PtrList
_ZN22XYView_PtrList_UpdaterC1ER14XYView_PtrList
_ZN22XYView_PtrList_UpdaterC2ER14XYView_PtrList
_ZN22ivBrowserList_IteratorC1ERK13ivBrowserList
_ZN22ivBrowserList_IteratorC2ERK13ivBrowserList
_ZN22ivObserverList_UpdaterC1ER14ivObserverList
_ZN22ivObserverList_UpdaterC2ER14ivObserverList
_ZN22osNullTerminatedString6assignERK8osString
_ZN22osNullTerminatedString7strfreeEv
_ZN22osNullTerminatedStringC1ERK8osString
_ZN22osNullTerminatedStringC1ERKS_
_ZN22osNullTerminatedStringC1Ev
_ZN22osNullTerminatedStringC2ERK8osString
_ZN22osNullTerminatedStringC2ERKS_
_ZN22osNullTerminatedStringC2Ev
_ZN22osNullTerminatedStringD0Ev
_ZN22osNullTerminatedStringD1Ev
_ZN22osNullTerminatedStringD2Ev
_ZN22osNullTerminatedStringaSEPKc
_ZN22osNullTerminatedStringaSERK8osString
_ZN23CopyStringList_IteratorC1ERK14CopyStringList
_ZN23CopyStringList_IteratorC2ERK14CopyStringList
_ZN23GLineRecordList_UpdaterC1ER15GLineRecordList
_ZN23GLineRecordList_UpdaterC2ER15GLineRecordList
_ZN23HocValEditorKeepUpdated5writeERSo
_ZN23HocValEditorKeepUpdatedC1EPKcS1_P10ValEdLabelP12HocValActionPdP7HocItemP6Object
_ZN23HocValEditorKeepUpdatedC2EPKcS1_P10ValEdLabelP12HocValActionPdP7HocItemP6Object
_ZN23HocValEditorKeepUpdatedD0Ev
_ZN23HocValEditorKeepUpdatedD1Ev
_ZN23HocValEditorKeepUpdatedD2Ev
_ZN23MWcontrolTable_Iterator4nextEv
_ZN23MWcontrolTable_IteratorC1ER14MWcontrolTable
_ZN23MWcontrolTable_IteratorC2ER14MWcontrolTable
_ZN23MWcursorPtrList_UpdaterC1ER15MWcursorPtrList
_ZN23MWcursorPtrList_UpdaterC2ER15MWcursorPtrList
_ZN23MWfamilyPtrList_UpdaterC1ER15MWfamilyPtrList
_ZN23MWfamilyPtrList_UpdaterC2ER15MWfamilyPtrList
_ZN23Multisend_ReceiveBuffer10phase2sendEv
_ZN23Multisend_ReceiveBuffer4initEi
_ZN23Multisend_ReceiveBuffer7enqueueEv
_ZN23Multisend_ReceiveBuffer8incomingEid
_ZN23Multisend_ReceiveBufferC1Ev
_ZN23Multisend_ReceiveBufferC2Ev
_ZN23Multisend_ReceiveBufferD0Ev
_ZN23Multisend_ReceiveBufferD1Ev
_ZN23Multisend_ReceiveBufferD2Ev
_ZN23PrinterInfoList_UpdaterC1ER15PrinterInfoList
_ZN23PrinterInfoList_UpdaterC2ER15PrinterInfoList
_ZN23SMFKitInfoList_IteratorC1ERK14SMFKitInfoList
_ZN23SMFKitInfoList_IteratorC2ERK14SMFKitInfoList
_ZN23SceneInfo_List_IteratorC1ERK14SceneInfo_List
_ZN23SceneInfo_List_IteratorC2ERK14SceneInfo_List
_ZN23TBScrollBoxList_UpdaterC1ER15TBScrollBoxList
_ZN23TBScrollBoxList_UpdaterC2ER15TBScrollBoxList
_ZN23TextActionArray_UpdaterC1ER15TextActionArray
_ZN23TextActionArray_UpdaterC2ER15TextActionArray
_ZN23XYView_PtrList_IteratorC1ERK14XYView_PtrList
_ZN23XYView_PtrList_IteratorC2ERK14XYView_PtrList
_ZN23iv3_Text_ActionCallback7executeEv
_ZN23iv3_Text_ActionCallbackC1EP8iv3_TextMS0_FvvE
_ZN23iv3_Text_ActionCallbackC2EP8iv3_TextMS0_FvvE
_ZN23iv3_Text_ActionCallbackD0Ev
_ZN23iv3_Text_ActionCallbackD1Ev
_ZN23ivObserverList_IteratorC1ERK14ivObserverList
_ZN23ivObserverList_IteratorC2ERK14ivObserverList
_ZN24GLineRecordList_IteratorC1ERK15GLineRecordList
_ZN24GLineRecordList_IteratorC2ERK15GLineRecordList
_ZN24InputHandlerList_UpdaterC1ER16InputHandlerList
_ZN24InputHandlerList_UpdaterC2ER16InputHandlerList
_ZN24MWcursorPtrList_IteratorC1ERK15MWcursorPtrList
_ZN24MWcursorPtrList_IteratorC2ERK15MWcursorPtrList
_ZN24MWfamilyPtrList_IteratorC1ERK15MWfamilyPtrList
_ZN24MWfamilyPtrList_IteratorC2ERK15MWfamilyPtrList
_ZN24MWhandlerPtrList_UpdaterC1ER16MWhandlerPtrList
_ZN24MWhandlerPtrList_UpdaterC2ER16MWhandlerPtrList
_ZN24PrinterInfoList_IteratorC1ERK15PrinterInfoList
_ZN24PrinterInfoList_IteratorC2ERK15PrinterInfoList
_ZN24TBScrollBoxList_IteratorC1ERK15TBScrollBoxList
_ZN24TBScrollBoxList_IteratorC2ERK15TBScrollBoxList
_ZN24TextActionArray_IteratorC1ERK15TextActionArray
_ZN24TextActionArray_IteratorC2ERK15TextActionArray
_ZN24UniqueStringList_UpdaterC1ER16UniqueStringList
_ZN24UniqueStringList_UpdaterC2ER16UniqueStringList
_ZN24ivSession_ActionCallback7executeEv
_ZN24ivSession_ActionCallbackC1EP9ivSessionMS0_FvvE
_ZN24ivSession_ActionCallbackC2EP9ivSessionMS0_FvvE
_ZN24ivSession_ActionCallbackD0Ev
_ZN24ivSession_ActionCallbackD1Ev
_ZN25HocUpdateItemList_UpdaterC1ER17HocUpdateItemList
_ZN25HocUpdateItemList_UpdaterC2ER17HocUpdateItemList
_ZN25InputHandlerList_IteratorC1ERK16InputHandlerList
_ZN25InputHandlerList_IteratorC2ERK16InputHandlerList
_ZN25MWhandlerPtrList_IteratorC1ERK16MWhandlerPtrList
_ZN25MWhandlerPtrList_IteratorC2ERK16MWhandlerPtrList
_ZN25PRtransformerList_UpdaterC1ER17PRtransformerList
_ZN25PRtransformerList_UpdaterC2ER17PRtransformerList
_ZN25ShapeScene_ActionCallback7executeEv
_ZN25ShapeScene_ActionCallbackC1EP10ShapeSceneMS0_FvvE
_ZN25ShapeScene_ActionCallbackC2EP10ShapeSceneMS0_FvvE
_ZN25ShapeScene_ActionCallbackD0Ev
_ZN25ShapeScene_ActionCallbackD1Ev
_ZN25ShapeScene_RubberCallback7executeEP10Rubberband
_ZN25ShapeScene_RubberCallbackC1EP10ShapeSceneMS0_FvP10RubberbandE
_ZN25ShapeScene_RubberCallbackC2EP10ShapeSceneMS0_FvP10RubberbandE
_ZN25ShapeScene_RubberCallbackD0Ev
_ZN25ShapeScene_RubberCallbackD1Ev
_ZN25ShapeScene_RubberCallbackD2Ev
_ZN25UniqueStringList_IteratorC1ERK16UniqueStringList
_ZN25UniqueStringList_IteratorC2ERK16UniqueStringList
_ZN25ivMacroActionList_UpdaterC1ER17ivMacroActionList
_ZN25ivMacroActionList_UpdaterC2ER17ivMacroActionList
_ZN26AllocationInfoList_UpdaterC1ER18AllocationInfoList
_ZN26AllocationInfoList_UpdaterC2ER18AllocationInfoList
_ZN26ButtonItemInfoList_UpdaterC1ER18ButtonItemInfoList
_ZN26ButtonItemInfoList_UpdaterC2ER18ButtonItemInfoList
_ZN26HocUpdateItemList_IteratorC1ERK17HocUpdateItemList
_ZN26HocUpdateItemList_IteratorC2ERK17HocUpdateItemList
_ZN26MWtransformPtrList_UpdaterC1ER18MWtransformPtrList
_ZN26MWtransformPtrList_UpdaterC2ER18MWtransformPtrList
_ZN26PRtransformerList_IteratorC1ERK17PRtransformerList
_ZN26PRtransformerList_IteratorC2ERK17PRtransformerList
_ZN26StyleAttributeList_UpdaterC1ER18StyleAttributeList
_ZN26StyleAttributeList_UpdaterC2ER18StyleAttributeList
_ZN26WidgetKitStyleList_UpdaterC1ER18WidgetKitStyleList
_ZN26WidgetKitStyleList_UpdaterC2ER18WidgetKitStyleList
_ZN26ivMacroActionList_IteratorC1ERK17ivMacroActionList
_ZN26ivMacroActionList_IteratorC2ERK17ivMacroActionList
_ZN26ivTileReversedFirstAligned7requestElPK13ivRequisitionRS0_
_ZN26ivTileReversedFirstAligned8allocateERK12ivAllocationlPK13ivRequisitionPS0_
_ZN26ivTileReversedFirstAlignedC1Ej
_ZN26ivTileReversedFirstAlignedC2Ej
_ZN26ivTileReversedFirstAlignedD0Ev
_ZN26ivTileReversedFirstAlignedD1Ev
_ZN26ivTileReversedFirstAlignedD2Ev
_ZN27AllocationInfoList_IteratorC1ERK18AllocationInfoList
_ZN27AllocationInfoList_IteratorC2ERK18AllocationInfoList
_ZN27ButtonItemInfoList_IteratorC1ERK18ButtonItemInfoList
_ZN27ButtonItemInfoList_IteratorC2ERK18ButtonItemInfoList
_ZN27MWtransformPtrList_IteratorC1ERK18MWtransformPtrList
_ZN27MWtransformPtrList_IteratorC2ERK18MWtransformPtrList
_ZN27StyleAttributeList_IteratorC1ERK18StyleAttributeList
_ZN27StyleAttributeList_IteratorC2ERK18StyleAttributeList
_ZN27TextAnnotationArray_UpdaterC1ER19TextAnnotationArray
_ZN27TextAnnotationArray_UpdaterC2ER19TextAnnotationArray
_ZN27WidgetKitStyleList_IteratorC1ERK18WidgetKitStyleList
_ZN27WidgetKitStyleList_IteratorC2ERK18WidgetKitStyleList
_ZN28ShapePlotImpl_ActionCallback7executeEv
_ZN28ShapePlotImpl_ActionCallbackC1EP13ShapePlotImplMS0_FvvE
_ZN28ShapePlotImpl_ActionCallbackC2EP13ShapePlotImplMS0_FvvE
_ZN28ShapePlotImpl_ActionCallbackD0Ev
_ZN28ShapePlotImpl_ActionCallbackD1Ev
_ZN28StyleAttributeTable_Iterator4nextEv
_ZN28StyleAttributeTable_IteratorC1ER19StyleAttributeTable
_ZN28StyleAttributeTable_IteratorC2ER19StyleAttributeTable
_ZN28TextAnnotationArray_IteratorC1ERK19TextAnnotationArray
_ZN28TextAnnotationArray_IteratorC2ERK19TextAnnotationArray
_ZN28osUniqueStringTable_Iterator4nextEv
_ZN28osUniqueStringTable_IteratorC1ER19osUniqueStringTable
_ZN28osUniqueStringTable_IteratorC2ER19osUniqueStringTable
_ZN29HocStateButton_ActionCallback7executeEv
_ZN29HocStateButton_ActionCallbackC1EP14HocStateButtonMS0_FvvE
_ZN29HocStateButton_ActionCallbackC2EP14HocStateButtonMS0_FvvE
_ZN29HocStateButton_ActionCallbackD0Ev
_ZN29HocStateButton_ActionCallbackD1Ev
_ZN29SymChooserImpl_ActionCallback7executeEv
_ZN29SymChooserImpl_ActionCallbackC1EP14SymChooserImplMS0_FvvE
_ZN29SymChooserImpl_ActionCallbackC2EP14SymChooserImplMS0_FvvE
_ZN29SymChooserImpl_ActionCallbackD0Ev
_ZN29SymChooserImpl_ActionCallbackD1Ev
_ZN2Oc10getSessionEv
_ZN2Oc10valid_exprEP6Symbol
_ZN2Oc10valid_stmtEPKcP6Object
_ZN2Oc11help_cursorEv
_ZN2Oc11save_streamE
_ZN2Oc12handleStdin_E
_ZN2Oc12help_cursor_E
_ZN2Oc12notify_freedEPFvPviE
_ZN2Oc13notify_attachEP10ivObserver
_ZN2Oc13notify_detachEP10ivObserver
_ZN2Oc14notifyHocValueEv
_ZN2Oc14notify_change_E
_ZN2Oc14setAcceptInputEb
_ZN2Oc17notify_when_freedEPdP10ivObserver
_ZN2Oc17notify_when_freedEPvP10ivObserver
_ZN2Oc25notify_pointer_disconnectEP10ivObserver
_ZN2Oc3runEPKcb
_ZN2Oc3runEiPPKc
_ZN2Oc4helpEPKc
_ZN2Oc4nameEP6Symbol
_ZN2Oc6notifyEv
_ZN2Oc7cleanupEv
_ZN2Oc7refcnt_E
_ZN2Oc7runExprEP6Symbol
_ZN2Oc8helpmodeEP8ivWindow
_ZN2Oc8helpmodeEb
_ZN2Oc8session_E
_ZN2Oc9helpmode_E
_ZN2Oc9parseExprEPKcPP7Symlist
_ZN2OcC1EP9ivSessionPKcPS3_
_ZN2OcC1Ev
_ZN2OcC2EP9ivSessionPKcPS3_
_ZN2OcC2Ev
_ZN2OcD0Ev
_ZN2OcD1Ev
_ZN2OcD2Ev
_ZN30PrintableWindow_ActionCallback7executeEv
_ZN30PrintableWindow_ActionCallbackC1EP15PrintableWindowMS0_FvvE
_ZN30PrintableWindow_ActionCallbackC2EP15PrintableWindowMS0_FvvE
_ZN30PrintableWindow_ActionCallbackD0Ev
_ZN30PrintableWindow_ActionCallbackD1Ev
_ZN31FieldDialog_FieldEditorCallback6acceptEP13ivFieldEditor
_ZN31FieldDialog_FieldEditorCallback6cancelEP13ivFieldEditor
_ZN31FieldDialog_FieldEditorCallbackC1EP11FieldDialogMS0_FvP13ivFieldEditorES5_
_ZN31FieldDialog_FieldEditorCallbackC2EP11FieldDialogMS0_FvP13ivFieldEditorES5_
_ZN31FieldDialog_FieldEditorCallbackD0Ev
_ZN31FieldDialog_FieldEditorCallbackD1Ev
_ZN31FieldDialog_FieldEditorCallbackD2Ev
_ZN31HocStateMenuItem_ActionCallback7executeEv
_ZN31HocStateMenuItem_ActionCallbackC1EP16HocStateMenuItemMS0_FvvE
_ZN31HocStateMenuItem_ActionCallbackC2EP16HocStateMenuItemMS0_FvvE
_ZN31HocStateMenuItem_ActionCallbackD0Ev
_ZN31HocStateMenuItem_ActionCallbackD1Ev
_ZN32HocValAction_FieldEditorCallback6acceptEP13ivFieldEditor
_ZN32HocValAction_FieldEditorCallback6cancelEP13ivFieldEditor
_ZN32HocValAction_FieldEditorCallbackC1EP12HocValActionMS0_FvP13ivFieldEditorES5_
_ZN32HocValAction_FieldEditorCallbackC2EP12HocValActionMS0_FvP13ivFieldEditorES5_
_ZN32HocValAction_FieldEditorCallbackD0Ev
_ZN32HocValAction_FieldEditorCallbackD1Ev
_ZN32HocValAction_FieldEditorCallbackD2Ev
_ZN32ivFileChooserImpl_ActionCallback7executeEv
_ZN32ivFileChooserImpl_ActionCallbackC1EP17ivFileChooserImplMS0_FvvE
_ZN32ivFileChooserImpl_ActionCallbackC2EP17ivFileChooserImplMS0_FvvE
_ZN32ivFileChooserImpl_ActionCallbackD0Ev
_ZN32ivFileChooserImpl_ActionCallbackD1Ev
_ZN34HocDefaultValEditor_ActionCallback7executeEv
_ZN34HocDefaultValEditor_ActionCallbackC1EP19HocDefaultValEditorMS0_FvvE
_ZN34HocDefaultValEditor_ActionCallbackC2EP19HocDefaultValEditorMS0_FvvE
_ZN34HocDefaultValEditor_ActionCallbackD0Ev
_ZN34HocDefaultValEditor_ActionCallbackD1Ev
_ZN34SymChooserImpl_FieldEditorCallback6acceptEP13ivFieldEditor
_ZN34SymChooserImpl_FieldEditorCallback6cancelEP13ivFieldEditor
_ZN34SymChooserImpl_FieldEditorCallbackC1EP14SymChooserImplMS0_FvP13ivFieldEditorES5_
_ZN34SymChooserImpl_FieldEditorCallbackC2EP14SymChooserImplMS0_FvP13ivFieldEditorES5_
_ZN34SymChooserImpl_FieldEditorCallbackD0Ev
_ZN34SymChooserImpl_FieldEditorCallbackD1Ev
_ZN34SymChooserImpl_FieldEditorCallbackD2Ev
_ZN37ivFileChooserImpl_FieldEditorCallback6acceptEP13ivFieldEditor
_ZN37ivFileChooserImpl_FieldEditorCallback6cancelEP13ivFieldEditor
_ZN37ivFileChooserImpl_FieldEditorCallbackC1EP17ivFileChooserImplMS0_FvP13ivFieldEditorES5_
_ZN37ivFileChooserImpl_FieldEditorCallbackC2EP17ivFileChooserImplMS0_FvP13ivFieldEditorES5_
_ZN37ivFileChooserImpl_FieldEditorCallbackD0Ev
_ZN37ivFileChooserImpl_FieldEditorCallbackD1Ev
_ZN37ivFileChooserImpl_FieldEditorCallbackD2Ev
_ZN3ACG5resetEv
_ZN3ACG6asLongEv
_ZN3ACGC1Eji
_ZN3ACGC2Eji
_ZN3ACGD0Ev
_ZN3ACGD1Ev
_ZN3ACGD2Ev
_ZN3BBS10gid_existsEi
_ZN3BBS10integ_timeEv
_ZN3BBS10outputcellEi
_ZN3BBS11gid_connectEi
_ZN3BBS12master_worksEi
_ZN3BBS12netpar_solveEd
_ZN3BBS12set_gid2nodeEii
_ZN3BBS12spike_recordEP8IvocVectS1_S1_
_ZN3BBS12spike_recordEiP8IvocVectS1_
_ZN3BBS13add_wait_timeEd
_ZN3BBS15netpar_mindelayEd
_ZN3BBS20netpar_max_histogramEP8IvocVect
_ZN3BBS26netpar_spanning_statisticsEPiS0_S0_S0_
_ZN3BBS4cellEv
_ZN3BBS4doneEv
_ZN3BBS4initEi
_ZN3BBS4lookEPKc
_ZN3BBS4myidEv
_ZN3BBS4postEPKc
_ZN3BBS4takeEPKc
_ZN3BBS4timeEv
_ZN3BBS5nhostEv
_ZN3BBS5pkintEi
_ZN3BBS5pkstrEPKc
_ZN3BBS5pkvecEiPd
_ZN3BBS5pyretEv
_ZN3BBS6perrorEPKc
_ZN3BBS6submitEi
_ZN3BBS6upkintEv
_ZN3BBS6upkstrEv
_ZN3BBS6upkvecEiPd
_ZN3BBS6workerEv
_ZN3BBS7contextEv
_ZN3BBS7gid2objEi
_ZN3BBS7pkbeginEv
_ZN3BBS7workingERiRdS0_
_ZN3BBS8gid2cellEi
_ZN3BBS8pkdoubleEd
_ZN3BBS8pkpickleEPKcy
_ZN3BBS9is_masterEv
_ZN3BBS9look_takeEPKc
_ZN3BBS9send_timeEv
_ZN3BBS9thresholdEv
_ZN3BBS9upkdoubleEv
_ZN3BBS9upkpickleEPy
_ZN3BBS9wait_timeEv
_ZN3BBSC1Ei
_ZN3BBSC1Ev
_ZN3BBSC2Ei
_ZN3BBSC2Ev
_ZN3BBSD0Ev
_ZN3BBSD1Ev
_ZN3BBSD2Ev
_ZN3Imp11input_phaseEP7Sectiond
_ZN3Imp12transfer_ampEP7Sectiond
_ZN3Imp14transfer_phaseEP7Sectiond
_ZN3Imp3locEP7Sectiond
_ZN3Imp5allocEv
_ZN3Imp5checkEv
_ZN3Imp5solveEv
_ZN3Imp6setmatEd
_ZN3Imp7computeEdbi
_ZN3Imp7impfreeEv
_ZN3Imp7setmat1Ev
_ZN3Imp8LUDecompEv
_ZN3Imp8locationEP7Sectiond
_ZN3Imp9input_ampEP7Sectiond
_ZN3Imp9ratio_ampEP7Sectiond
_ZN3ImpD0Ev
_ZN3ImpD1Ev
_ZN3ImpD2Ev
_ZN3RNG14doubleMantissaE
_ZN3RNG14singleMantissaE
_ZN3RNG7asFloatEv
_ZN3RNG8asDoubleEv
_ZN3RNGC1Ev
_ZN3RNGC2Ev
_ZN3RNGD0Ev
_ZN3RNGD1Ev
_ZN3RNGD2Ev
_ZN3nrn10nmodlmutexE
_ZN3nrn4tool11remove_fromISt8multimapIPdP10ivObserverSt4lessIS3_ESaISt4pairIKS3_S5_EEEEEvRKNT_8key_typeERKNSD_11mapped_typeERSD_
_ZN3nrn4tool11remove_fromISt8multimapIPvP10ivObserverSt4lessIS3_ESaISt4pairIKS3_S5_EEEEEvRKNT_8key_typeERKNSD_11mapped_typeERSD_
_ZN3nrn4tool5bimapIPdP10ivObserverE8obremoveERKS4_
_ZN3nrn4tool5bimapIPvP10ivObserverE8obremoveERKS4_
_ZN4Axis4initEfffiiib
_ZN4Axis4saveERSo
_ZN4Axis4sizeERfS0_
_ZN4Axis6updateEP12ivObservable
_ZN4Axis7installEv
_ZN4Axis8locationEv
_ZN4Axis9set_rangeEv
_ZN4AxisC1EP5Scenej
_ZN4AxisC1EP5Scenejff
_ZN4AxisC1EP5Scenejfffiiib
_ZN4AxisC2EP5Scenej
_ZN4AxisC2EP5Scenejff
_ZN4AxisC2EP5Scenejfffiiib
_ZN4AxisD0Ev
_ZN4AxisD1Ev
_ZN4AxisD2Ev
_ZN4BinQ4nextEP6TQItem
_ZN4BinQ5firstEv
_ZN4BinQ6removeEP6TQItem
_ZN4BinQ6resizeEi
_ZN4BinQ7dequeueEv
_ZN4BinQ7enqueueEdP6TQItem
_ZN4BinQC1Ev
_ZN4BinQC2Ev
_ZN4BinQD0Ev
_ZN4BinQD1Ev
_ZN4BinQD2Ev
_ZN4KSIv3curEdPdP5Datumd
_ZN4KSIv5jacobEPdP5Datumd
_ZN4KSIvD0Ev
_ZN4KSIvD1Ev
_ZN4MLCG5resetEv
_ZN4MLCG6asLongEv
_ZN4MLCGC1Eii
_ZN4MLCGC2Eii
_ZN4MLCGD0Ev
_ZN4MLCGD1Ev
_ZN4PoolI12NRNMPI_SpikeE4growEv
_ZN4PoolI12NRNMPI_SpikeEC1El
_ZN4PoolI12NRNMPI_SpikeED1Ev
_ZN4PoolI7SectionE4growEv
_ZN4PoolI7SectionEC1El
_ZN4RandC1EmiP6Object
_ZN4RandC2EmiP6Object
_ZN4RandD1Ev
_ZN4RandD2Ev
_ZN4View10scale_viewEffff
_ZN4View6originEff
_ZN4View8box_sizeEffff
_ZN4View8new_viewEffff
_ZN4View9move_viewEff
_ZN4ViewC1EP5Scene
_ZN4ViewC1EfffP5Sceneff
_ZN4ViewC1EffffP5Sceneff
_ZN4ViewC2EP5Scene
_ZN4ViewC2EfffP5Sceneff
_ZN4ViewC2EffffP5Sceneff
_ZN4ViewD0Ev
_ZN4ViewD1Ev
_ZN4ViewD2Ev
_ZN5Cvode10advance_tnEv
_ZN5Cvode10cvode_initEd
_ZN5Cvode10daspk_initEd
_ZN5Cvode10delete_prlEv
_ZN5Cvode10fun_threadEdPdS0_P9NrnThread
_ZN5Cvode10record_addEP10PlayRecord
_ZN5Cvode10statisticsEv
_ZN5Cvode11alloc_cvodeEv
_ZN5Cvode11alloc_daspkEv
_ZN5Cvode11gather_ydotEP17_generic_N_Vector
_ZN5Cvode11gather_ydotEPdi
_ZN5Cvode11handle_stepEP8NetCvoded
_ZN5Cvode11init_globalEv
_ZN5Cvode11interpolateEd
_ZN5Cvode12before_afterEP10BAMechListP9NrnThread
_ZN5Cvode12init_prepareEv
_ZN5Cvode12scatter_ydotEPdi
_ZN5Cvode13atolvec_allocEi
_ZN5Cvode13check_deliverEP9NrnThread
_ZN5Cvode13error_weightsEPd
_ZN5Cvode13free_cvodememEv
_ZN5Cvode13n_vector_dataEP17_generic_N_Vectori
_ZN5Cvode13nocap_v_part1EP9NrnThread
_ZN5Cvode13nocap_v_part2EP9NrnThread
_ZN5Cvode13nocap_v_part3EP9NrnThread
_ZN5Cvode13set_init_flagEv
_ZN5Cvode13solvex_threadEPdS0_P9NrnThread
_ZN5Cvode14daspk_gather_yEP17_generic_N_Vector
_ZN5Cvode14daspk_gather_yEPdi
_ZN5Cvode14daspk_init_eqnEv
_ZN5Cvode15daspk_scatter_yEP17_generic_N_Vector
_ZN5Cvode15daspk_scatter_yEPdi
_ZN5Cvode15new_no_cap_membER15CvodeThreadDataP9NrnThread
_ZN5Cvode15play_continuousEd
_ZN5Cvode16cvode_advance_tnEv
_ZN5Cvode16daspk_advance_tnEv
_ZN5Cvode17activate_maxstateEb
_ZN5Cvode17cvode_constructorEv
_ZN5Cvode17cvode_interpolateEd
_ZN5Cvode17record_continuousEv
_ZN5Cvode19evaluate_conditionsEP9NrnThread
_ZN5Cvode19fun_thread_ms_part1EdPdP9NrnThread
_ZN5Cvode19fun_thread_ms_part2EP9NrnThread
_ZN5Cvode19fun_thread_ms_part3EP9NrnThread
_ZN5Cvode19fun_thread_ms_part4EPdP9NrnThread
_ZN5Cvode19solvex_thread_part1EPdP9NrnThread
_ZN5Cvode19solvex_thread_part2EP9NrnThread
_ZN5Cvode19solvex_thread_part3EPdP9NrnThread
_ZN5Cvode1hEv
_ZN5Cvode20fun_thread_ms_part34EPdP9NrnThread
_ZN5Cvode22play_continuous_threadEdP9NrnThread
_ZN5Cvode24record_continuous_threadEP9NrnThread
_ZN5Cvode25fun_thread_transfer_part1EdPdP9NrnThread
_ZN5Cvode25fun_thread_transfer_part2EPdP9NrnThread
_ZN5Cvode2t0Ev
_ZN5Cvode2tnEv
_ZN5Cvode3gamEv
_ZN5Cvode3lhsEP9NrnThread
_ZN5Cvode3resEdPdS0_S0_P9NrnThread
_ZN5Cvode3rhsEP9NrnThread
_ZN5Cvode4acorEPd
_ZN5Cvode4initEd
_ZN5Cvode4psolEdPdS0_dP9NrnThread
_ZN5Cvode5bksubEP9NrnThread
_ZN5Cvode5nvnewEl
_ZN5Cvode5orderEv
_ZN5Cvode5setupEP17_generic_N_VectorS1_
_ZN5Cvode5solveEv
_ZN5Cvode6do_odeEP9NrnThread
_ZN5Cvode6ewtvecEv
_ZN5Cvode6statesEPd
_ZN5Cvode6triangEP9NrnThread
_ZN5Cvode7acorvecEv
_ZN5Cvode7at_timeEdP9NrnThread
_ZN5Cvode7dstatesEPd
_ZN5Cvode7matmethEv
_ZN5Cvode7maxacorEPd
_ZN5Cvode7maxstepEd
_ZN5Cvode7minstepEd
_ZN5Cvode7nocap_vEP9NrnThread
_ZN5Cvode8gather_yEP17_generic_N_Vector
_ZN5Cvode8gather_yEPdi
_ZN5Cvode8init_eqnEv
_ZN5Cvode8is_ownerEPd
_ZN5Cvode8lhs_membEP10CvMembListP9NrnThread
_ZN5Cvode8maxorderEi
_ZN5Cvode8maxstateEPd
_ZN5Cvode8maxstateEbP9NrnThread
_ZN5Cvode8play_addEP10PlayRecord
_ZN5Cvode8rhs_membEP10CvMembListP9NrnThread
_ZN5Cvode8solvememEP9NrnThread
_ZN5Cvode9do_nonodeEP9NrnThread
_ZN5Cvode9scatter_yEPdi
_ZN5Cvode9stat_initEv
_ZN5CvodeC1EP8NetCvode
_ZN5CvodeC1Ev
_ZN5CvodeC2EP8NetCvode
_ZN5CvodeC2Ev
_ZN5CvodeD0Ev
_ZN5CvodeD1Ev
_ZN5CvodeD2Ev
_ZN5Daspk10advance_tnEd
_ZN5Daspk10statisticsEv
_ZN5Daspk11interpolateEd
_ZN5Daspk15init_try_again_E
_ZN5Daspk19init_failure_style_E
_ZN5Daspk24first_try_init_failures_E
_ZN5Daspk4infoEv
_ZN5Daspk4initEv
_ZN5Daspk6dteps_E
_ZN5Daspk6ewtvecEv
_ZN5Daspk7acorvecEv
_ZN5Daspk8ida_initEv
_ZN5DaspkC1EP5Cvodei
_ZN5DaspkC2EP5Cvodei
_ZN5DaspkD0Ev
_ZN5DaspkD1Ev
_ZN5DaspkD2Ev
_ZN5Graph10begin_lineEPK7ivColorPK7ivBrushPKc
_ZN5Graph10begin_lineEPKc
_ZN5Graph10choose_symEv
_ZN5Graph10erase_axisEv
_ZN5Graph10fast_flushEv
_ZN5Graph10keep_linesEv
_ZN5Graph11change_propEv
_ZN5Graph11erase_linesEv
_ZN5Graph11glyph_indexEPK7ivGlyph
_ZN5Graph11save_phase1ERSo
_ZN5Graph11save_phase2ERSo
_ZN5Graph11update_ptrsEv
_ZN5Graph12add_polylineEP9GPolyLine
_ZN5Graph12change_labelEP6GLabelPKcS1_
_ZN5Graph12cross_actionEcP9GPolyLinei
_ZN5Graph12cross_actionEcff
_ZN5Graph12delete_labelEP6GLabel
_ZN5Graph12family_valueEv
_ZN5Graph13label_chooserEPKcPcP6GLabelff
_ZN5Graph14see_range_plotEP11GraphVector
_ZN5Graph15add_graphVectorEP11GraphVector
_ZN5Graph15extension_startEv
_ZN5Graph16set_cross_actionEPKcP6Objectb
_ZN5Graph17change_line_colorEP9GPolyLine
_ZN5Graph17keep_lines_toggleEv
_ZN5Graph18change_label_colorEP6GLabel
_ZN5Graph18extension_continueEv
_ZN5Graph20family_label_chooserEv
_ZN5Graph4axisEjfffiiib
_ZN5Graph4fsc_E
_ZN5Graph4helpEv
_ZN5Graph4lineEff
_ZN5Graph4markEffcfPK7ivColorPK7ivBrush
_ZN5Graph4nameEPc
_ZN5Graph4pickEP8ivCanvasRK12ivAllocationiR5ivHit
_ZN5Graph4plotEf
_ZN5Graph5alignEff
_ZN5Graph5asciiEPSo
_ZN5Graph5asciiEv
_ZN5Graph5beginEv
_ZN5Graph5brushEi
_ZN5Graph5colorEi
_ZN5Graph5eraseEv
_ZN5Graph5fixedEf
_ZN5Graph5flushEv
_ZN5Graph5labelEPKci
_ZN5Graph5labelEffPKcfi
_ZN5Graph5labelEffPKcifffPK7ivColor
_ZN5Graph6ascii_E
_ZN5Graph6familyEPKc
_ZN5Graph6familyEb
_ZN5Graph6vfixedEf
_ZN5Graph6x_exprEPKcb
_ZN5Graph7add_varEPKcPK7ivColorPK7ivBrushbiPdS1_P6Object
_ZN5Graph8new_axisEv
_ZN5Graph8new_sizeEffff
_ZN5Graph8relativeEf
_ZN5Graph8simgraphEv
_ZN5Graph8view_boxEv
_ZN5Graph9erase_allEv
_ZN5Graph9view_axisEv
_ZN5GraphC1Eb
_ZN5GraphC2Eb
_ZN5GraphD0Ev
_ZN5GraphD1Ev
_ZN5GraphD2Ev
_ZN5MWapp3runEv
_ZN5MWapp7appNameEPKc
_ZN5MWapp7appNameEv
_ZN5MWapp9setModuleEP11HINSTANCE__S1_PKci
_ZN5MWappC1Ev
_ZN5MWappC2Ev
_ZN5MWappD1Ev
_ZN5MWappD2Ev
_ZN5Oc2IV10object_strEPKcP6Object
_ZN5Oc2IV11object_pstrEPKcP6Object
_ZN5OcBBSC1Ei
_ZN5OcBBSC2Ei
_ZN5OcBBSD0Ev
_ZN5OcBBSD1Ev
_ZN5OcBBSD2Ev
_ZN5OcBox10box_appendEP7OcGlyph
_ZN5OcBox10dismissingEb
_ZN5OcBox10dismissingEv
_ZN5OcBox10no_parentsEv
_ZN5OcBox11save_actionEPKcP6Object
_ZN5OcBox12full_requestEb
_ZN5OcBox12full_requestEv
_ZN5OcBox14dismiss_actionEPKcP6Object
_ZN5OcBox4saveERSo
_ZN5OcBox6adjustEfP9BoxAdjust
_ZN5OcBox6adjustEfi
_ZN5OcBox6premapEv
_ZN5OcBox8adjusterEf
_ZN5OcBox8keep_refEP6Object
_ZN5OcBox8keep_refEv
_ZN5OcBoxC1Eiib
_ZN5OcBoxC2Eiib
_ZN5OcBoxD0Ev
_ZN5OcBoxD1Ev
_ZN5OcBoxD2Ev
_ZN5Scene10backgroundEP7ivGlyph
_ZN5Scene10damage_allEv
_ZN5Scene10save_classERSoPKc
_ZN5Scene11append_viewEP6XYView
_ZN5Scene11glyph_indexEPK7ivGlyph
_ZN5Scene11remove_viewEP6XYView
_ZN5Scene11save_phase1ERSo
_ZN5Scene11save_phase2ERSo
_ZN5Scene12append_fixedEP7ivGlyph
_ZN5Scene12delete_labelEP6GLabel
_ZN5Scene15change_to_fixedElP6XYView
_ZN5Scene16append_viewfixedEP7ivGlyph
_ZN5Scene16change_to_vfixedElP6XYView
_ZN5Scene16check_allocationEl
_ZN5Scene16scene_list_indexEPS_
_ZN5Scene17change_line_colorEP9GPolyLine
_ZN5Scene18change_label_colorEP6GLabel
_ZN5Scene18default_backgroundEv
_ZN5Scene18default_foregroundEv
_ZN5Scene4helpEv
_ZN5Scene4mbs_E
_ZN5Scene4moveElff
_ZN5Scene4pickEP8ivCanvasRK12ivAllocationiR5ivHit
_ZN5Scene4showElb
_ZN5Scene4toolEi
_ZN5Scene4toolEv
_ZN5Scene6appendEP7ivGlyph
_ZN5Scene6changeEl
_ZN5Scene6damageEffff
_ZN5Scene6damageEl
_ZN5Scene6damageElRK12ivAllocation
_ZN5Scene6insertElP7ivGlyph
_ZN5Scene6pickerEv
_ZN5Scene6removeEl
_ZN5Scene7dismissEv
_ZN5Scene7prependEP7ivGlyph
_ZN5Scene7replaceElP7ivGlyph
_ZN5Scene8allocateEP8ivCanvasRK12ivAllocationR11ivExtension
_ZN5Scene8modifiedEl
_ZN5Scene8new_sizeEffff
_ZN5Scene8save_allERSo
_ZN5Scene9printfileEPKc
_ZN5SceneC1EffffP7ivGlyph
_ZN5SceneC2EffffP7ivGlyph
_ZN5SceneD0Ev
_ZN5SceneD1Ev
_ZN5SceneD2Ev
_ZN5Space4pickEP8ivCanvasRK12ivAllocationiR5ivHit
_ZN5Space8allocateEP8ivCanvasRK12ivAllocationR11ivExtension
_ZN5SpaceC1EifPK6ivFontPK7ivColor
_ZN5SpaceC2EifPK6ivFontPK7ivColor
_ZN5SpaceD0Ev
_ZN5SpaceD1Ev
_ZN5SpaceD2Ev
_ZN5Strut8allocateEP8ivCanvasRK12ivAllocationR11ivExtension
_ZN5StrutC1EPK6ivFontfff
_ZN5StrutC2EPK6ivFontfff
_ZN5StrutD0Ev
_ZN5StrutD1Ev
_ZN5StrutD2Ev
_ZN5ivBox12full_requestEb
_ZN5ivBox13full_request_E
_ZN5ivBox4pickEP8ivCanvasRK12ivAllocationiR5ivHit
_ZN5ivBox6undrawEv
_ZN5ivBox8allocateEP8ivCanvasRK12ivAllocationR11ivExtension
_ZN5ivBox8modifiedEl
_ZN5ivBoxC1EP8ivLayoutP7ivGlyphS3_S3_S3_S3_S3_S3_S3_S3_S3_
_ZN5ivBoxC1EP8ivLayoutl
_ZN5ivBoxC2EP8ivLayoutP7ivGlyphS3_S3_S3_S3_S3_S3_S3_S3_S3_
_ZN5ivBoxC2EP8ivLayoutl
_ZN5ivBoxD0Ev
_ZN5ivBoxD1Ev
_ZN5ivBoxD2Ev
_ZN5ivHit13pop_transformEv
_ZN5ivHit14push_transformEv
_ZN5ivHit3endEv
_ZN5ivHit4initEv
_ZN5ivHit5beginEiP7ivGlyphlP9ivHandler
_ZN5ivHit6removeEil
_ZN5ivHit6targetEiP7ivGlyphlP9ivHandler
_ZN5ivHit8retargetEiP7ivGlyphlP9ivHandlerl
_ZN5ivHit9transformERK13ivTransformer
_ZN5ivHitC1EP9ivHitImpl
_ZN5ivHitC1EPK7ivEvent
_ZN5ivHitC1Eff
_ZN5ivHitC1Effff
_ZN5ivHitC2EP9ivHitImpl
_ZN5ivHitC2EPK7ivEvent
_ZN5ivHitC2Eff
_ZN5ivHitC2Effff
_ZN5ivHitD0Ev
_ZN5ivHitD1Ev
_ZN5ivHitD2Ev
_ZN6Appear13default_brushEv
_ZN6Appear13default_colorEv
_ZN6Appear3db_E
_ZN6Appear3dc_E
_ZN6Appear5brushEPK7ivBrush
_ZN6Appear5colorEPK7ivColor
_ZN6AppearC1EPK7ivColorPK7ivBrush
_ZN6AppearC2EPK7ivColorPK7ivBrush
_ZN6AppearD0Ev
_ZN6AppearD1Ev
_ZN6AppearD2Ev
_ZN6Circle8allocateEP8ivCanvasRK12ivAllocationR11ivExtension
_ZN6CircleC1EfbPK7ivColorPK7ivBrush
_ZN6CircleC2EfbPK7ivColorPK7ivBrush
_ZN6CircleD0Ev
_ZN6CircleD1Ev
_ZN6CircleD2Ev
_ZN6DWList6insertElP8ivWindow
_ZN6ErlangD0Ev
_ZN6ErlangD1Ev
_ZN6ErlangclEv
_ZN6GLabel4pickEP8ivCanvasRK12ivAllocationiR5ivHit
_ZN6GLabel4saveERSoff
_ZN6GLabel4textEPKc
_ZN6GLabel5alignEff
_ZN6GLabel5colorEPK7ivColor
_ZN6GLabel5fixedEf
_ZN6GLabel6vfixedEf
_ZN6GLabel8allocateEP8ivCanvasRK12ivAllocationR11ivExtension
_ZN6GLabel8relativeEf
_ZN6GLabelC1EPKcPK7ivColorifff
_ZN6GLabelC2EPKcPK7ivColorifff
_ZN6GLabelD0Ev
_ZN6GLabelD1Ev
_ZN6GLabelD2Ev
_ZN6HStrutC1Efffff
_ZN6HStrutC2Efffff
_ZN6HStrutD0Ev
_ZN6HStrutD1Ev
_ZN6HStrutD2Ev
_ZN6HTList4FindEPv
_ZN6HTList6AppendEPS_
_ZN6HTList6DeleteEPv
_ZN6HTList6RemoveEPS_
_ZN6HTList6RemoveEv
_ZN6HTList7PrependEPS_
_ZN6HTList9RemoveAllEv
_ZN6HTListC1EPv
_ZN6HTListC2EPv
_ZN6HTListD0Ev
_ZN6HTListD1Ev
_ZN6HTListD2Ev
_ZN6HTListixEi
_ZN6Hinton6updateEP12ivObservable
_ZN6Hinton8allocateEP8ivCanvasRK12ivAllocationR11ivExtension
_ZN6HintonC1EPdffP10ShapeScene
_ZN6HintonC2EPdffP10ShapeScene
_ZN6HintonD0Ev
_ZN6HintonD1Ev
_ZN6HintonD2Ev
_ZN6KSChan10gate_indexEi
_ZN6KSChan10installsymEPKciP6Symbol
_ZN6KSChan10set_singleEbb
_ZN6KSChan11add_channelEPPKc
_ZN6KSChan11add_hhstateEPKc
_ZN6KSChan11add_ksstateEiPKc
_ZN6KSChan11conductanceEdPd
_ZN6KSChan11destroy_pntEP13Point_process
_ZN6KSChan11gate_insertEiii
_ZN6KSChan11gate_removeEi
_ZN6KSChan11ion_consistEv
_ZN6KSChan11trans_indexEPKcS1_
_ZN6KSChan11trans_indexEii
_ZN6KSChan11update_propEv
_ZN6KSChan12check_structEv
_ZN6KSChan12cv_sc_updateEiPP4NodePPdPP5DatumP9NrnThread
_ZN6KSChan12remove_stateEi
_ZN6KSChan12setstructureEP8IvocVect
_ZN6KSChan12state_insertEiPKcd
_ZN6KSChan12state_removeEi
_ZN6KSChan12trans_insertEiii
_ZN6KSChan12trans_removeEi
_ZN6KSChan13sname_installEv
_ZN6KSChan13state_consistEi
_ZN6KSChan14add_transitionEiiPKc
_ZN6KSChan14ligand_consistEiiP4PropP4Node
_ZN6KSChan17remove_transitionEi
_ZN6KSChan18check_table_threadEP9NrnThread
_ZN6KSChan21alloc_schan_node_dataEv
_ZN6KSChan22delete_schan_node_dataEv
_ZN6KSChan3curEiPP4NodePPdPP5Datum
_ZN6KSChan3curEiPiPPdPP5DatumP9NrnThread
_ZN6KSChan3mapEiPPdS1_S0_P5DatumS0_
_ZN6KSChan4initEiPP4NodePPdPP5DatumP9NrnThread
_ZN6KSChan4specEiPP4NodePPdPP5Datum
_ZN6KSChan5allocEP4Prop
_ZN6KSChan5buildEv
_ZN6KSChan5countEv
_ZN6KSChan5free1Ev
_ZN6KSChan5jacobEiPP4NodePPdPP5Datum
_ZN6KSChan5jacobEiPiPPdPP5DatumP9NrnThread
_ZN6KSChan5powerEP13KSGateComplexi
_ZN6KSChan5stateEPKc
_ZN6KSChan5stateEi
_ZN6KSChan5stateEiPP4NodePPdPP5DatumP9NrnThread
_ZN6KSChan5stateEiPiPP4NodePPdPP5DatumP9NrnThread
_ZN6KSChan6mat_dtEdPd
_ZN6KSChan6matsolEiPP4NodePPdPP5DatumP9NrnThread
_ZN6KSChan6mulmatEPdS0_
_ZN6KSChan6setionEPKc
_ZN6KSChan7fillmatEdP5Datum
_ZN6KSChan7freesymEP6SymbolS1_
_ZN6KSChan7looksymEPKcP6Symbol
_ZN6KSChan7needionEP6SymbolP4NodeP4Prop
_ZN6KSChan7nsingleEP13Point_process
_ZN6KSChan7nsingleEP13Point_processi
_ZN6KSChan7setcondEv
_ZN6KSChan7setnameEPKc
_ZN6KSChan7settypeEP12KSTransitioniPKc
_ZN6KSChan8newppsymEi
_ZN6KSChan8setsnameEiPKc
_ZN6KSChan8setupmatEv
_ZN6KSChan8solvematEPd
_ZN6KSChan8usetableEPdS0_
_ZN6KSChan8usetableEb
_ZN6KSChan8usetableEbidd
_ZN6KSChan9setligandEiPKc
_ZN6KSChanC1EP6Objectb
_ZN6KSChanC2EP6Objectb
_ZN6KSChanD0Ev
_ZN6KSChanD1Ev
_ZN6KSChanD2Ev
_ZN6KSPPIv3curEdPdP5Datumd
_ZN6KSPPIv5jacobEPdP5Datumd
_ZN6KSPPIvD0Ev
_ZN6KSPPIvD1Ev
_ZN6MyMath10resolutionEd
_ZN6MyMath11round_rangeEffRdS0_Ri
_ZN6MyMath11unit_normalEffPf
_ZN6MyMath16distance_to_lineEffffff
_ZN6MyMath16round_range_downEffRdS0_Ri
_ZN6MyMath17near_line_segmentEfffffff
_ZN6MyMath24distance_to_line_segmentEffffff
_ZN6MyMath3boxER13ivRequisitionRfS2_S2_S2_
_ZN6MyMath3maxEiPKf
_ZN6MyMath3minEiPKf
_ZN6MyMath5anintEd
_ZN6MyMath5roundERfS0_ii
_ZN6MyMath9near_lineEfffffff
_ZN6NetCon10disconnectEP12ivObservable
_ZN6NetCon11replace_srcEP6PreSyn
_ZN6NetCon13pgvts_deliverEdP8NetCvode
_ZN6NetCon14savestate_readEP6_iobuf
_ZN6NetCon14savestate_saveEv
_ZN6NetCon15netcon_deliver_E
_ZN6NetCon19netcon_send_active_E
_ZN6NetCon21netcon_send_inactive_E
_ZN6NetCon2prEPKcdP8NetCvode
_ZN6NetCon4sendEdP8NetCvodeP9NrnThread
_ZN6NetCon4typeEv
_ZN6NetCon5rmsrcEv
_ZN6NetCon6chksrcEv
_ZN6NetCon6chktarEv
_ZN6NetCon6threadEv
_ZN6NetCon7deliverEdP8NetCvodeP9NrnThread
_ZN6NetCon8pgvts_opERi
_ZN6NetConC1EP6PreSynP6Object
_ZN6NetConC2EP6PreSynP6Object
_ZN6NetConD0Ev
_ZN6NetConD1Ev
_ZN6NetConD2Ev
_ZN6NormalD0Ev
_ZN6NormalD1Ev
_ZN6NormalclEv
_ZN6NrnDAE15extra_eqn_countEv
_ZN6NrnDAE20jacobian_multiplier_Ev
_ZN6NrnDAE3lhsEv
_ZN6NrnDAE3rhsEv
_ZN6NrnDAE3v2yEv
_ZN6NrnDAE4initEv
_ZN6NrnDAE5allocEi
_ZN6NrnDAE5dkmapEPPdS1_
_ZN6NrnDAE5dkresEPdS0_S0_
_ZN6NrnDAE6alloc_EiiiPP4NodePi
_ZN6NrnDAE6updateEv
_ZN6NrnDAEC1EP8OcMatrixP8IvocVectS3_iPP4NodeS3_PFvPvES7_
_ZN6NrnDAEC2EP8OcMatrixP8IvocVectS3_iPP4NodeS3_PFvPvES7_
_ZN6NrnDAED0Ev
_ZN6NrnDAED1Ev
_ZN6NrnDAED2Ev
_ZN6OcDeck10box_appendEP7OcGlyph
_ZN6OcDeck11remove_lastEv
_ZN6OcDeck11save_actionEPKcP6Object
_ZN6OcDeck4saveERSo
_ZN6OcDeck6removeEl
_ZN6OcDeck7flip_toEi
_ZN6OcDeck9move_lastEi
_ZN6OcDeckC1Ev
_ZN6OcDeckC2Ev
_ZN6OcDeckD0Ev
_ZN6OcDeckD1Ev
_ZN6OcDeckD2Ev
_ZN6OcFile11binary_modeEv
_ZN6OcFile18file_chooser_popupEv
_ZN6OcFile18file_chooser_styleEPKcS1_S1_S1_S1_S1_
_ZN6OcFile3dirEv
_ZN6OcFile3eofEv
_ZN6OcFile4fileEv
_ZN6OcFile4openEPKcS1_
_ZN6OcFile5closeEv
_ZN6OcFile6mktempEv
_ZN6OcFile6unlinkEv
_ZN6OcFile8set_nameEPKc
_ZN6OcFileC1Ev
_ZN6OcFileC2Ev
_ZN6OcFileD0Ev
_ZN6OcFileD1Ev
_ZN6OcFileD2Ev
_ZN6OcJump7executeEP4Inst
_ZN6OcJump7executeEPKcP6Object
_ZN6OcJump7fpycallEPFPvS0_S0_ES0_S0_
_ZN6OcList10remove_allEv
_ZN6OcList14create_browserEPKcPPcS1_
_ZN6OcList14create_browserEPKcS1_P6Object
_ZN6OcList4orefEP6Object
_ZN6OcList5countEv
_ZN6OcList5indexEP6Object
_ZN6OcList6appendEP6Object
_ZN6OcList6insertElP6Object
_ZN6OcList6objectEl
_ZN6OcList6ounrefEP6Object
_ZN6OcList6removeEl
_ZN6OcList6updateEP12ivObservable
_ZN6OcList7browserEv
_ZN6OcList7prependEP6Object
_ZN6OcListC1EPKc
_ZN6OcListC1El
_ZN6OcListC2EPKc
_ZN6OcListC2El
_ZN6OcListD0Ev
_ZN6OcListD1Ev
_ZN6OcListD2Ev
_ZN6OcText9keystrokeERK7ivEvent
_ZN6OcTextC1EjjP14iv3_TextBuffer
_ZN6OcTextC2EjjP14iv3_TextBuffer
_ZN6OcTextD0Ev
_ZN6OcTextD1Ev
_ZN6OcTextD2Ev
_ZN6OcTray10start_vboxEv
_ZN6OcTray11make_windowEffff
_ZN6OcTray3winEP15PrintableWindow
_ZN6OcTray8dissolveEff
_ZN6OcTrayC1El
_ZN6OcTrayC2El
_ZN6OcTrayD0Ev
_ZN6OcTrayD1Ev
_ZN6OcTrayD2Ev
_ZN6PPList10remove_allEv
_ZN6PPList6insertElRK15PortablePointer
_ZN6PPList6removeEl
_ZN6PPListC1El
_ZN6PPListC2El
_ZN6PPListD1Ev
_ZN6PPListD2Ev
_ZN6PreSyn10disconnectEP12ivObservable
_ZN6PreSyn10update_ptrEPd
_ZN6PreSyn11record_stmtEP6Object
_ZN6PreSyn11record_stmtEPKc
_ZN6PreSyn13pgvts_deliverEdP8NetCvode
_ZN6PreSyn14savestate_readEP6_iobuf
_ZN6PreSyn14savestate_saveEv
_ZN6PreSyn19presyn_send_direct_E
_ZN6PreSyn21presyn_send_mindelay_E
_ZN6PreSyn22presyn_deliver_direct_E
_ZN6PreSyn22presyn_deliver_ncsend_E
_ZN6PreSyn22presyn_deliver_netcon_E
_ZN6PreSyn2prEPKcdP8NetCvode
_ZN6PreSyn4initEv
_ZN6PreSyn4sendEdP8NetCvodeP9NrnThread
_ZN6PreSyn4typeEv
_ZN6PreSyn5valueEv
_ZN6PreSyn6fanoutEdP8NetCvodeP9NrnThread
_ZN6PreSyn6recordEP8IvocVectS1_i
_ZN6PreSyn6recordEd
_ZN6PreSyn6threadEv
_ZN6PreSyn6updateEP12ivObservable
_ZN6PreSyn7asf_errEv
_ZN6PreSyn7deliverEdP8NetCvodeP9NrnThread
_ZN6PreSyn8mindelayEv
_ZN6PreSyn8pgvts_opERi
_ZN6PreSynC1EPdP6ObjectP7Section
_ZN6PreSynC2EPdP6ObjectP7Section
_ZN6PreSynD0Ev
_ZN6PreSynD1Ev
_ZN6PreSynD2Ev
_ZN6SEWrap4typeEv
_ZN6SEWrapC1EPK6TQItemP6DEList
_ZN6SEWrapC2EPK6TQItemP6DEList
_ZN6SEWrapD0Ev
_ZN6SEWrapD1Ev
_ZN6SEWrapD2Ev
_ZN6TQItem5checkEv
_ZN6TQItemC1Ev
_ZN6TQItemC2Ev
_ZN6TQItemD0Ev
_ZN6TQItemD1Ev
_ZN6TQItemD2Ev
_ZN6TQueue10deleteitemEP6TQItem
_ZN6TQueue10move_leastEd
_ZN6TQueue10spike_statEPd
_ZN6TQueue10statisticsEv
_ZN6TQueue11enqueue_binEdPv
_ZN6TQueue12second_leastEd
_ZN6TQueue15forall_callbackEPFvPK6TQItemiE
_ZN6TQueue17move_least_nolockEd
_ZN6TQueue4findEd
_ZN6TQueue4moveEP6TQItemd
_ZN6TQueue5checkEPKc
_ZN6TQueue5printEv
_ZN6TQueue6insertEdPv
_ZN6TQueue6removeEP6TQItem
_ZN6TQueue7releaseEP6TQItem
_ZN6TQueue9atomic_dqEd
_ZN6TQueueC1EP9MutexPoolI6TQItemEi
_ZN6TQueueC2EP9MutexPoolI6TQItemEi
_ZN6TQueueD0Ev
_ZN6TQueueD1Ev
_ZN6TQueueD2Ev
_ZN6VStrutC1Efffff
_ZN6VStrutC2Efffff
_ZN6VStrutD0Ev
_ZN6VStrutD1Ev
_ZN6VStrutD2Ev
_ZN6XYView10damage_allEv
_ZN6XYView10scale_viewEffff
_ZN6XYView11append_viewEP5Scene
_ZN6XYView12view_margin_E
_ZN6XYView15set_damage_areaEP8ivCanvas
_ZN6XYView17current_draw_viewEv
_ZN6XYView17current_pick_viewEPS_
_ZN6XYView17current_pick_viewEv
_ZN6XYView4initEffffP5Sceneff
_ZN6XYView4pickEP8ivCanvasRK12ivAllocationiR5ivHit
_ZN6XYView4saveERSo
_ZN6XYView4sizeEffff
_ZN6XYView6canvasEP8ivCanvas
_ZN6XYView6canvasEv
_ZN6XYView6damageEP7ivGlyphRK12ivAllocationbb
_ZN6XYView6damageEffff
_ZN6XYView6originEff
_ZN6XYView6strokeEP8ivCanvasPK7ivColorPK7ivBrush
_ZN6XYView6undrawEv
_ZN6XYView6x_spanEf
_ZN6XYView6y_spanEf
_ZN6XYView8allocateEP8ivCanvasRK12ivAllocationR11ivExtension
_ZN6XYView8box_sizeEffff
_ZN6XYView8new_viewEffff
_ZN6XYView9move_viewEff
_ZN6XYView9printfileEPKc
_ZN6XYViewC1EP5Sceneff
_ZN6XYViewC1EffffP5Sceneff
_ZN6XYViewC2EP5Sceneff
_ZN6XYViewC2EffffP5Sceneff
_ZN6XYViewD0Ev
_ZN6XYViewD1Ev
_ZN6XYViewD2Ev
_ZN6ivDeck4pickEP8ivCanvasRK12ivAllocationiR5ivHit
_ZN6ivDeck6undrawEv
_ZN6ivDeck7flip_toEl
_ZN6ivDeck8allocateEP8ivCanvasRK12ivAllocationR11ivExtension
_ZN6ivDeck8modifiedEl
_ZN6ivDeckC1El
_ZN6ivDeckC2El
_ZN6ivDeckD0Ev
_ZN6ivDeckD1Ev
_ZN6ivDeckD2Ev
_ZN6ivFont6existsEP9ivDisplayPKc
_ZN6ivFont6existsEP9ivDisplayRK8osString
_ZN6ivFont6lookupEPKc
_ZN6ivFont6lookupERK8osString
_ZN6ivFont7cleanupEv
_ZN6ivFontC1EP10ivFontImpl
_ZN6ivFontC1EPKcf
_ZN6ivFontC1ERK8osStringf
_ZN6ivFontC2EP10ivFontImpl
_ZN6ivFontC2EPKcf
_ZN6ivFontC2ERK8osStringf
_ZN6ivFontD0Ev
_ZN6ivFontD1Ev
_ZN6ivFontD2Ev
_ZN6ivGlue8allocateEP8ivCanvasRK12ivAllocationR11ivExtension
_ZN6ivGlueC1ERK13ivRequisition
_ZN6ivGlueC1Ejffff
_ZN6ivGlueC2ERK13ivRequisition
_ZN6ivGlueC2Ejffff
_ZN6ivGlueD0Ev
_ZN6ivGlueD1Ev
_ZN6ivGlueD2Ev
_ZN6ivLine4pickEP8ivCanvasRK12ivAllocationiR5ivHit
_ZN6ivLine8allocateEP8ivCanvasRK12ivAllocationR11ivExtension
_ZN6ivLineC1EffPK7ivColorPK7ivBrush
_ZN6ivLineC1EffffPK7ivColorPK7ivBrush
_ZN6ivLineC2EffPK7ivColorPK7ivBrush
_ZN6ivLineC2EffffPK7ivColorPK7ivBrush
_ZN6ivLineD0Ev
_ZN6ivLineD1Ev
_ZN6ivLineD2Ev
_ZN6ivMenu11append_itemEP10ivMenuItem
_ZN6ivMenu11insert_itemElP10ivMenuItem
_ZN6ivMenu11remove_itemEl
_ZN6ivMenu12prepend_itemEP10ivMenuItem
_ZN6ivMenu12replace_itemElP10ivMenuItem
_ZN6ivMenu4dragERK7ivEvent
_ZN6ivMenu4openEv
_ZN6ivMenu5closeEv
_ZN6ivMenu5pressERK7ivEvent
_ZN6ivMenu6selectEl
_ZN6ivMenu7releaseERK7ivEvent
_ZN6ivMenu8unselectEv
_ZN6ivMenuC1EP7ivGlyphP7ivStyleffff
_ZN6ivMenuC2EP7ivGlyphP7ivStyleffff
_ZN6ivMenuD0Ev
_ZN6ivMenuD1Ev
_ZN6ivMenuD2Ev
_ZN6ivTile7requestElPK13ivRequisitionRS0_
_ZN6ivTile8allocateERK12ivAllocationlPK13ivRequisitionPS0_
_ZN6ivTileC1Ej
_ZN6ivTileC2Ej
_ZN6ivTileD0Ev
_ZN6ivTileD1Ev
_ZN6ivTileD2Ev
_ZN6neuron2oc13runtime_errorD0Ev
_ZN6neuron2oc13runtime_errorD1Ev
_ZN6neuron6config9argumentsE
_ZN6neuron8scopmath5simeqIPdPiEEiiPS2_T_T0_
_ZN6neuron8scopmath7deflateEdPdS1_
_ZN6osFile5closeEv
_ZN6osFile5limitEj
_ZN6osFileC1EP10osFileInfo
_ZN6osFileC2EP10osFileInfo
_ZN6osFileD0Ev
_ZN6osFileD1Ev
_ZN6osFileD2Ev
_ZN6osMath3absEd
_ZN6osMath3absEi
_ZN6osMath3absEl
_ZN7BBSImpl10is_master_E
_ZN7BBSImpl11return_argsEi
_ZN7BBSImpl13master_works_E
_ZN7BBSImpl14execute_helperEPyib
_ZN7BBSImpl18master_take_resultEi
_ZN7BBSImpl23subworld_worker_executeEv
_ZN7BBSImpl4doneEv
_ZN7BBSImpl4timeEv
_ZN7BBSImpl5done_E
_ZN7BBSImpl5startEv
_ZN7BBSImpl6debug_E
_ZN7BBSImpl6mytid_E
_ZN7BBSImpl6perrorEPKc
_ZN7BBSImpl6submitEi
_ZN7BBSImpl6workerEv
_ZN7BBSImpl7contextEv
_ZN7BBSImpl7executeEi
_ZN7BBSImpl7workingERiRdS0_
_ZN7BBSImpl8started_E
_ZN7BBSImpl9is_masterEv
_ZN7BBSImplC1Ev
_ZN7BBSImplC2Ev
_ZN7BBSImplD0Ev
_ZN7BBSImplD1Ev
_ZN7BBSImplD2Ev
_ZN7BBSS_IO4skipEi
_ZN7BBSS_IOC1Ev
_ZN7BBSS_IOC2Ev
_ZN7DataVec11running_maxEv
_ZN7DataVec11running_minEv
_ZN7DataVec13running_startEv
_ZN7DataVec3addEf
_ZN7DataVec3maxEii
_ZN7DataVec3minEii
_ZN7DataVec5eraseEv
_ZN7DataVec5writeEv
_ZN7DataVecC1EPKS_
_ZN7DataVecC1Ei
_ZN7DataVecC2EPKS_
_ZN7DataVecC2Ei
_ZN7DataVecD0Ev
_ZN7DataVecD1Ev
_ZN7DataVecD2Ev
_ZN7GrGlyph10close_pathEv
_ZN7GrGlyph11temp_objvarEv
_ZN7GrGlyph13control_pointEff
_ZN7GrGlyph3gifEPKc
_ZN7GrGlyph4fillEi
_ZN7GrGlyph5eraseEv
_ZN7GrGlyph6circleEfff
_ZN7GrGlyph6strokeEii
_ZN7GrGlyph7line_toEff
_ZN7GrGlyph7move_toEff
_ZN7GrGlyph8curve_toEffffff
_ZN7GrGlyph8new_pathEv
_ZN7GrGlyphC1EP6Object
_ZN7GrGlyphC2EP6Object
_ZN7GrGlyphD0Ev
_ZN7GrGlyphD1Ev
_ZN7GrGlyphD2Ev
_ZN7HocItem11help_parentEPS_
_ZN7HocItem4helpEPKc
_ZN7HocItem5writeERSo
_ZN7HocItem6getStrEv
_ZN7HocItemC1EPKcPS_
_ZN7HocItemC2EPKcPS_
_ZN7HocItemD0Ev
_ZN7HocItemD1Ev
_ZN7HocItemD2Ev
_ZN7HocMark10mark_list_E
_ZN7HocMark12most_recent_E
_ZN7HocMark3addEPS_
_ZN7HocMark4pickEP8ivCanvasRK12ivAllocationiR5ivHit
_ZN7HocMark5checkEcfPK7ivColorPK7ivBrush
_ZN7HocMark6searchEcfPK7ivColorPK7ivBrush
_ZN7HocMark8allocateEP8ivCanvasRK12ivAllocationR11ivExtension
_ZN7HocMark8instanceEcfPK7ivColorPK7ivBrush
_ZN7HocMarkC1EcfPK7ivColorPK7ivBrush
_ZN7HocMarkC2EcfPK7ivColorPK7ivBrush
_ZN7HocMarkD0Ev
_ZN7HocMarkD1Ev
_ZN7HocMarkD2Ev
_ZN7HocMenu4itemEv
_ZN7HocMenu4menuEv
_ZN7HocMenu5writeERSo
_ZN7HocMenuC1EPKcP6ivMenuP10ivMenuItemP7HocItemb
_ZN7HocMenuC2EPKcP6ivMenuP10ivMenuItemP7HocItemb
_ZN7HocMenuD0Ev
_ZN7HocMenuD1Ev
_ZN7HocMenuD2Ev
_ZN7Isaac644cnt_E
_ZN7Isaac645resetEv
_ZN7Isaac646asLongEv
_ZN7Isaac648asDoubleEv
_ZN7Isaac64C1Ej
_ZN7Isaac64C2Ej
_ZN7Isaac64D0Ev
_ZN7Isaac64D1Ev
_ZN7Isaac64D2Ev
_ZN7KSIvghk3curEdPdP5Datumd
_ZN7KSIvghk5jacobEPdP5Datumd
_ZN7KSIvghkD0Ev
_ZN7KSIvghkD1Ev
_ZN7KSStateC1Ev
_ZN7KSStateC2Ev
_ZN7KSStateD0Ev
_ZN7KSStateD1Ev
_ZN7KSStateD2Ev
_ZN7NewView4helpEv
_ZN7NewView7executeEP10Rubberband
_ZN7NewViewC1Ev
_ZN7NewViewC2Ev
_ZN7NewViewD0Ev
_ZN7NewViewD1Ev
_ZN7NewViewD2Ev
_ZN7Objects15find_and_removeERiP6Object
_ZN7Objects4findERiP6Object
_ZN7Objects6insertEP6Objecti
_ZN7Objects6removeEP6Object
_ZN7ObjectsC1Ei
_ZN7ObjectsC2Ei
_ZN7ObjectsD1Ev
_ZN7ObjectsD2Ev
_ZN7OcGlyph10has_windowEv
_ZN7OcGlyph10no_parentsEv
_ZN7OcGlyph11make_windowEffff
_ZN7OcGlyph14dialog_dismissEb
_ZN7OcGlyph4saveERSo
_ZN7OcGlyph6dialogEPKcS1_S1_
_ZN7OcGlyph6windowEP15PrintableWindow
_ZN7OcGlyph6windowEv
_ZN7OcGlyph7parentsEb
_ZN7OcGlyphC1EP7ivGlyph
_ZN7OcGlyphC2EP7ivGlyph
_ZN7OcGlyphD0Ev
_ZN7OcGlyphD1Ev
_ZN7OcGlyphD2Ev
_ZN7OcIdraw10close_pathEv
_ZN7OcIdraw12idraw_streamE
_ZN7OcIdraw3addEff
_ZN7OcIdraw3endEv
_ZN7OcIdraw4bsplEP8ivCanvasiPKfS3_PK7ivColorPK7ivBrush
_ZN7OcIdraw4fillEP8ivCanvasPK7ivColor
_ZN7OcIdraw4lineEP8ivCanvasffffPK7ivColorPK7ivBrush
_ZN7OcIdraw4pictERK13ivTransformer
_ZN7OcIdraw4pictEv
_ZN7OcIdraw4polyEiPKfS1_PK7ivColorPK7ivBrushb
_ZN7OcIdraw4rectEP8ivCanvasffffPK7ivColorPK7ivBrushb
_ZN7OcIdraw4textEP8ivCanvasPKcRK13ivTransformerPK6ivFontPK7ivColor
_ZN7OcIdraw5brushEPK7ivBrush
_ZN7OcIdraw5cbsplEP8ivCanvasiPKfS3_PK7ivColorPK7ivBrushb
_ZN7OcIdraw5ifillEPK7ivColorb
_ZN7OcIdraw5mlineEP8ivCanvasiPKfS3_PK7ivColorPK7ivBrush
_ZN7OcIdraw6epilogEv
_ZN7OcIdraw6ipath_E
_ZN7OcIdraw6rcurveEiffffff
_ZN7OcIdraw6strokeEP8ivCanvasPK7ivColorPK7ivBrush
_ZN7OcIdraw6xpath_E
_ZN7OcIdraw6ypath_E
_ZN7OcIdraw7closed_E
_ZN7OcIdraw7curved_E
_ZN7OcIdraw7ellipseEP8ivCanvasffffPK7ivColorPK7ivBrushb
_ZN7OcIdraw7line_toEff
_ZN7OcIdraw7move_toEff
_ZN7OcIdraw7polygonEP8ivCanvasiPKfS3_PK7ivColorPK7ivBrushb
_ZN7OcIdraw8curve_toEffffff
_ZN7OcIdraw8new_pathEv
_ZN7OcIdraw8prologueEv
_ZN7OcIdraw9capacity_E
_ZN7OcShape10point_markEP6ObjectPK7ivColorcf
_ZN7OcShape10point_markEP7SectionfPK7ivColor
_ZN7OcShape11save_phase1ERSo
_ZN7OcShape11transform3dEP10Rubberband
_ZN7OcShape13handle_pickedEv
_ZN7OcShape14select_sectionEP7Section
_ZN7OcShape17point_mark_removeEP6Object
_ZN7OcShape17set_select_actionEP6Object
_ZN7OcShape17set_select_actionEPKc
_ZN7OcShape8selectedEP12ShapeSectionff
_ZN7OcShape8selectedEv
_ZN7OcShape9erase_allEv
_ZN7OcShape9sel_colorEP12ShapeSectionS1_
_ZN7OcShapeC1EP11SectionList
_ZN7OcShapeC2EP11SectionList
_ZN7OcShapeD0Ev
_ZN7OcShapeD1Ev
_ZN7OcShapeD2Ev
_ZN7OcTimer12timerExpiredEll
_ZN7OcTimer4stopEv
_ZN7OcTimer5startEv
_ZN7OcTimer7secondsEd
_ZN7OcTimer7secondsEv
_ZN7OcTimerC1EP6Object
_ZN7OcTimerC1EPKc
_ZN7OcTimerC2EP6Object
_ZN7OcTimerC2EPKc
_ZN7OcTimerD0Ev
_ZN7OcTimerD1Ev
_ZN7OcTimerD2Ev
_ZN7PPBImplC1EP6OcList
_ZN7PPBImplC2EP6OcList
_ZN7PPBImplD0Ev
_ZN7PPBImplD1Ev
_ZN7PPBImplD2Ev
_ZN7PPShape7examineEP17PointProcessGlyph
_ZN7PPShape7installEP6Object
_ZN7PPShape7pp_moveEP17PointProcessGlyph
_ZN7PPShape9pp_appendEP6Object
_ZN7PPShape9pp_removeEP17PointProcessGlyph
_ZN7PPShapeC1EP6OcList
_ZN7PPShapeC2EP6OcList
_ZN7PPShapeD0Ev
_ZN7PPShapeD1Ev
_ZN7PPShapeD2Ev
_ZN7PWMImpl10paperscaleEv
_ZN7PWMImpl10print_decoEP9ivPrinterR12ivAllocationPKc
_ZN7PWMImpl10save_beginERSo
_ZN7PWMImpl10save_groupEP6ObjectPKc
_ZN7PWMImpl10upper_leftEv
_ZN7PWMImpl11ascii_writeEPKcb
_ZN7PWMImpl11idraw_writeEPKcb
_ZN7PWMImpl11paper_indexEP9PaperItem
_ZN7PWMImpl11resize_toolEv
_ZN7PWMImpl11select_toolEv
_ZN7PWMImpl11view_screenEff
_ZN7PWMImpl11virt_screenEv
_ZN7PWMImpl12append_paperEP10ScreenItem
_ZN7PWMImpl12common_printEP9ivPrinterbb
_ZN7PWMImpl12file_controlEv
_ZN7PWMImpl12mac_do_printEv
_ZN7PWMImpl12quit_controlEv
_ZN7PWMImpl12remove_paperEP9PaperItem
_ZN7PWMImpl12save_controlEi
_ZN7PWMImpl12save_sessionEiPKcS1_
_ZN7PWMImpl12unshow_paperEP9PaperItem
_ZN7PWMImpl13ascii_controlEv
_ZN7PWMImpl13file_control1Ev
_ZN7PWMImpl13idraw_controlEv
_ZN7PWMImpl13ps_file_printEbPKcbb
_ZN7PWMImpl15printer_controlEv
_ZN7PWMImpl16do_print_sessionEb
_ZN7PWMImpl16do_print_sessionEbPKc
_ZN7PWMImpl16retrieve_controlEv
_ZN7PWMImpl16save_all_controlEv
_ZN7PWMImpl21save_selected_controlEv
_ZN7PWMImpl23all_window_bounding_boxER11ivExtensionbb
_ZN7PWMImpl4decoEi
_ZN7PWMImpl4helpEv
_ZN7PWMImpl4toolEj
_ZN7PWMImpl4trayEv
_ZN7PWMImpl5indexEPv
_ZN7PWMImpl5roundEf
_ZN7PWMImpl6redrawEP8ivWindow
_ZN7PWMImpl6windowEv
_ZN7PWMImpl7map_allEv
_ZN7PWMImpl7relabelEv
_ZN7PWMImpl8do_printEbPKc
_ZN7PWMImpl8mprinterEv
_ZN7PWMImpl9do_print0Ev
_ZN7PWMImpl9landscapeEb
_ZN7PWMImpl9landscapeEv
_ZN7PWMImpl9move_toolEv
_ZN7PWMImpl9save_listEiPP10ScreenItemRSo
_ZN7PWMImpl9ses_groupEP10ScreenItemRSo
_ZN7PWMImpl9unmap_allEv
_ZN7PWMImplC1EP11ScreenSceneP10PaperSceneP8nrn_Rect
_ZN7PWMImplC2EP11ScreenSceneP10PaperSceneP8nrn_Rect
_ZN7PWMImplD1Ev
_ZN7PWMImplD2Ev
_ZN7PoissonD0Ev
_ZN7PoissonD1Ev
_ZN7PoissonclEv
_ZN7ShapeOfC1EP7ivGlyphS1_
_ZN7ShapeOfC2EP7ivGlyphS1_
_ZN7ShapeOfD0Ev
_ZN7ShapeOfD1Ev
_ZN7ShapeOfD2Ev
_ZN7Symbols15find_and_removeERiP6Symbol
_ZN7Symbols4findERiP6Symbol
_ZN7Symbols6insertEP6Symboli
_ZN7Symbols6removeEP6Symbol
_ZN7SymbolsC1Ei
_ZN7SymbolsC2Ei
_ZN7SymbolsD1Ev
_ZN7SymbolsD2Ev
_ZN7TarList5allocEv
_ZN7TarListC1Ev
_ZN7TarListC2Ev
_ZN7TarListD0Ev
_ZN7TarListD1Ev
_ZN7TarListD2Ev
_ZN7UniformD0Ev
_ZN7UniformD1Ev
_ZN7UniformclEv
_ZN7UpArrowC1EPK7ivColor
_ZN7UpArrowC2EPK7ivColor
_ZN7UpArrowD0Ev
_ZN7UpArrowD1Ev
_ZN7UpArrowD2Ev
_ZN7WeibullD0Ev
_ZN7WeibullD1Ev
_ZN7WeibullclEv
_ZN7ivAlign7requestElPK13ivRequisitionRS0_
_ZN7ivAlign8allocateERK12ivAllocationlPK13ivRequisitionPS0_
_ZN7ivAlignC1Ej
_ZN7ivAlignC2Ej
_ZN7ivAlignD0Ev
_ZN7ivAlignD1Ev
_ZN7ivAlignD2Ev
_ZN7ivBevel10down_arrowEP8ivCanvasPK7ivColorS4_S4_fffff
_ZN7ivBevel10left_arrowEP8ivCanvasPK7ivColorS4_S4_fffff
_ZN7ivBevel11right_arrowEP8ivCanvasPK7ivColorS4_S4_fffff
_ZN7ivBevel4rectEP8ivCanvasPK7ivColorS4_S4_fffff
_ZN7ivBevel7diamondEP8ivCanvasPK7ivColorS4_S4_fffff
_ZN7ivBevel8up_arrowEP8ivCanvasPK7ivColorS4_S4_fffff
_ZN7ivBevelC1EP7ivGlyphPFvP8ivCanvasPK7ivColorS6_S6_fffffES6_S6_S6_fffbb
_ZN7ivBevelC2EP7ivGlyphPFvP8ivCanvasPK7ivColorS6_S6_fffffES6_S6_S6_fffbb
_ZN7ivBevelD0Ev
_ZN7ivBevelD1Ev
_ZN7ivBevelD2Ev
_ZN7ivBrush11calc_dashesEiPiRi
_ZN7ivBrush4initEPKiif
_ZN7ivBrushC1EPKiif
_ZN7ivBrushC1Ef
_ZN7ivBrushC1Eif
_ZN7ivBrushC2EPKiif
_ZN7ivBrushC2Ef
_ZN7ivBrushC2Eif
_ZN7ivBrushD0Ev
_ZN7ivBrushD1Ev
_ZN7ivBrushD2Ev
_ZN7ivColor4findEPK9ivDisplayPKcRfS5_S5_
_ZN7ivColor4findEPK9ivDisplayRK8osStringRfS6_S6_
_ZN7ivColor6lookupEP9ivDisplayPKc
_ZN7ivColor6lookupEP9ivDisplayRK8osString
_ZN7ivColorC1ERKS_fj
_ZN7ivColorC1Effffj
_ZN7ivColorC2ERKS_fj
_ZN7ivColorC2Effffj
_ZN7ivColorD0Ev
_ZN7ivColorD1Ev
_ZN7ivColorD2Ev
_ZN7ivEvent4pollEv
_ZN7ivEvent4readEll
_ZN7ivEvent4readEv
_ZN7ivEvent6handleEv
_ZN7ivEvent6unreadEv
_ZN7ivEvent6windowEP8ivWindow
_ZN7ivEvent7displayEP9ivDisplay
_ZN7ivEvent8copy_repERKS_
_ZN7ivEventC1ERKS_
_ZN7ivEventC1Ev
_ZN7ivEventC2ERKS_
_ZN7ivEventC2Ev
_ZN7ivEventD0Ev
_ZN7ivEventD1Ev
_ZN7ivEventD2Ev
_ZN7ivEventaSERKS_
_ZN7ivGlyph4pickEP8ivCanvasRK12ivAllocationiR5ivHit
_ZN7ivGlyph6appendEPS_
_ZN7ivGlyph6changeEl
_ZN7ivGlyph6insertElPS_
_ZN7ivGlyph6removeEl
_ZN7ivGlyph6undrawEv
_ZN7ivGlyph7composeEj
_ZN7ivGlyph7prependEPS_
_ZN7ivGlyph7replaceElPS_
_ZN7ivGlyph8allocateEP8ivCanvasRK12ivAllocationR11ivExtension
_ZN7ivGlyphC1Ev
_ZN7ivGlyphC2Ev
_ZN7ivGlyphD0Ev
_ZN7ivGlyphD1Ev
_ZN7ivGlyphD2Ev
_ZN7ivImage8allocateEP8ivCanvasRK12ivAllocationR11ivExtension
_ZN7ivImageC1EPK8ivRaster
_ZN7ivImageC2EPK8ivRaster
_ZN7ivImageD0Ev
_ZN7ivImageD1Ev
_ZN7ivImageD2Ev
_ZN7ivLabel15compute_metricsEv
_ZN7ivLabel4pickEP8ivCanvasRK12ivAllocationiR5ivHit
_ZN7ivLabel8allocateEP8ivCanvasRK12ivAllocationR11ivExtension
_ZN7ivLabelC1EPKcPK6ivFontPK7ivColor
_ZN7ivLabelC1EPKciPK6ivFontPK7ivColor
_ZN7ivLabelC1ERK8osStringPK6ivFontPK7ivColor
_ZN7ivLabelC2EPKcPK6ivFontPK7ivColor
_ZN7ivLabelC2EPKciPK6ivFontPK7ivColor
_ZN7ivLabelC2ERK8osStringPK6ivFontPK7ivColor
_ZN7ivLabelD0Ev
_ZN7ivLabelD1Ev
_ZN7ivLabelD2Ev
_ZN7ivMFKit13style_changedEP7ivStyle
_ZN7ivMFKitC1Ev
_ZN7ivMFKitC2Ev
_ZN7ivMFKitD0Ev
_ZN7ivMFKitD1Ev
_ZN7ivMFKitD2Ev
_ZN7ivMacro6appendEP8ivAction
_ZN7ivMacro6insertElP8ivAction
_ZN7ivMacro6removeEl
_ZN7ivMacro7executeEv
_ZN7ivMacro7prependEP8ivAction
_ZN7ivMacroC1EP8ivActionS1_S1_S1_
_ZN7ivMacroC2EP8ivActionS1_S1_S1_
_ZN7ivMacroD0Ev
_ZN7ivMacroD1Ev
_ZN7ivMacroD2Ev
_ZN7ivPatch10reallocateEv
_ZN7ivPatch6repickEiR5ivHit
_ZN7ivPatch6undrawEv
_ZN7ivPatch8allocateEP8ivCanvasRK12ivAllocationR11ivExtension
_ZN7ivPatchC1EP7ivGlyph
_ZN7ivPatchC2EP7ivGlyph
_ZN7ivPatchD0Ev
_ZN7ivPatchD1Ev
_ZN7ivPatchD2Ev
_ZN7ivStyle11add_triggerEPKcP8ivAction
_ZN7ivStyle11add_triggerERK8osStringP8ivAction
_ZN7ivStyle13load_propertyERK8osStringi
_ZN7ivStyle14remove_triggerEPKcP8ivAction
_ZN7ivStyle14remove_triggerERK8osStringP8ivAction
_ZN7ivStyle15add_trigger_anyEP8ivAction
_ZN7ivStyle16remove_attributeEPKc
_ZN7ivStyle16remove_attributeERK8osString
_ZN7ivStyle18remove_trigger_anyEP8ivAction
_ZN7ivStyle4nameEPKc
_ZN7ivStyle4nameERK8osString
_ZN7ivStyle5aliasEPKc
_ZN7ivStyle5aliasERK8osString
_ZN7ivStyle6appendEPS_
_ZN7ivStyle6removeEPS_
_ZN7ivStyle9attributeEPKcS1_i
_ZN7ivStyle9attributeERK8osStringS2_i
_ZN7ivStyle9load_fileERK8osStringi
_ZN7ivStyle9load_listERK8osStringi
_ZN7ivStyleC1EPS_
_ZN7ivStyleC1ERK8osString
_ZN7ivStyleC1ERK8osStringPS_
_ZN7ivStyleC1ERKS_
_ZN7ivStyleC1Ev
_ZN7ivStyleC2EPS_
_ZN7ivStyleC2ERK8osString
_ZN7ivStyleC2ERK8osStringPS_
_ZN7ivStyleC2ERKS_
_ZN7ivStyleC2Ev
_ZN7ivStyleD0Ev
_ZN7ivStyleD1Ev
_ZN7ivStyleD2Ev
_ZN8BBSLocal11post_resultEi
_ZN8BBSLocal11return_argsEi
_ZN8BBSLocal14look_take_todoEv
_ZN8BBSLocal16look_take_resultEi
_ZN8BBSLocal4doneEv
_ZN8BBSLocal4lookEPKc
_ZN8BBSLocal4postEPKc
_ZN8BBSLocal4takeEPKc
_ZN8BBSLocal5pkintEi
_ZN8BBSLocal5pkstrEPKc
_ZN8BBSLocal5pkvecEiPd
_ZN8BBSLocal5startEv
_ZN8BBSLocal6perrorEPKc
_ZN8BBSLocal6upkintEv
_ZN8BBSLocal6upkstrEv
_ZN8BBSLocal6upkvecEiPd
_ZN8BBSLocal7contextEv
_ZN8BBSLocal7pkbeginEv
_ZN8BBSLocal8pkdoubleEd
_ZN8BBSLocal8pkpickleEPKcy
_ZN8BBSLocal9look_takeEPKc
_ZN8BBSLocal9post_todoEi
_ZN8BBSLocal9save_argsEi
_ZN8BBSLocal9take_todoEv
_ZN8BBSLocal9upkdoubleEv
_ZN8BBSLocal9upkpickleEPy
_ZN8BBSLocalC1Ev
_ZN8BBSLocalC2Ev
_ZN8BBSLocalD0Ev
_ZN8BBSLocalD1Ev
_ZN8BBSLocalD2Ev
_ZN8BBSS_Cnt10bytecntascEv
_ZN8BBSS_Cnt10bytecntbinEv
_ZN8BBSS_Cnt1dEiPd
_ZN8BBSS_Cnt1dEiRd
_ZN8BBSS_Cnt1iERii
_ZN8BBSS_Cnt1sEPci
_ZN8BBSS_Cnt4typeEv
_ZN8BBSS_Cnt7bytecntEv
_ZN8BBSS_CntC1Ev
_ZN8BBSS_CntC2Ev
_ZN8BBSS_CntD0Ev
_ZN8BBSS_CntD1Ev
_ZN8BBSS_CntD2Ev
_ZN8BinomialD0Ev
_ZN8BinomialD1Ev
_ZN8BinomialclEv
_ZN8DBAction6diswinEP10WinDismiss
_ZN8DBAction7executeEv
_ZN8DBActionC1EP10WinDismiss
_ZN8DBActionC2EP10WinDismiss
_ZN8DBActionD0Ev
_ZN8DBActionD1Ev
_ZN8DBActionD2Ev
_ZN8HocEvent13pgvts_deliverEdP8NetCvode
_ZN8HocEvent14hocevent_send_E
_ZN8HocEvent14savestate_readEP6_iobuf
_ZN8HocEvent14savestate_saveEv
_ZN8HocEvent15savestate_writeEP6_iobuf
_ZN8HocEvent16allthread_handleEv
_ZN8HocEvent17hocevent_deliver_E
_ZN8HocEvent17savestate_restoreEdP8NetCvode
_ZN8HocEvent2prEPKcdP8NetCvode
_ZN8HocEvent4typeEv
_ZN8HocEvent5allocEPKcP6ObjectiS3_
_ZN8HocEvent5clearEv
_ZN8HocEvent6hefreeEv
_ZN8HocEvent7deliverEdP8NetCvodeP9NrnThread
_ZN8HocEvent7hepool_E
_ZN8HocEvent7reclaimEv
_ZN8HocEvent8pgvts_opERi
_ZN8HocEventC1Ev
_ZN8HocEventC2Ev
_ZN8HocEventD0Ev
_ZN8HocEventD1Ev
_ZN8HocEventD2Ev
_ZN8HocLabel5writeERSo
_ZN8HocLabelC1EPKc
_ZN8HocLabelC2EPKc
_ZN8HocLabelD0Ev
_ZN8HocLabelD1Ev
_ZN8HocLabelD2Ev
_ZN8HocMarkPC1EcfPK7ivColorPK7ivBrush
_ZN8HocMarkPC2EcfPK7ivColorPK7ivBrush
_ZN8HocMarkPD0Ev
_ZN8HocMarkPD1Ev
_ZN8HocMarkPD2Ev
_ZN8HocPanel10itemAppendEPKc
_ZN8HocPanel10map_windowEi
_ZN8HocPanel10pushButtonEPKcS1_bP6Object
_ZN8HocPanel11item_appendEP7HocItem
_ZN8HocPanel11stateButtonEPdPKcS2_iP6ObjectS4_
_ZN8HocPanel11update_ptrsEv
_ZN8HocPanel12keep_updatedEP13HocUpdateItemb
_ZN8HocPanel12keep_updatedEv
_ZN8HocPanel12update_list_E
_ZN8HocPanel13menuStateItemEPdPKcS2_P6ObjectS4_
_ZN8HocPanel14notifyHocValueEv
_ZN8HocPanel20check_valid_pointersEPvi
_ZN8HocPanel3boxEv
_ZN8HocPanel4menuEPKcb
_ZN8HocPanel4saveERSo
_ZN8HocPanel5labelEPKc
_ZN8HocPanel5writeERSo
_ZN8HocPanel6sliderEPdfffiPKcbbP6ObjectS4_
_ZN8HocPanel7getNameEv
_ZN8HocPanel7valueEdEPKcP6ObjectS3_bbb
_ZN8HocPanel7valueEdEPKcS1_S1_bPdbbP15HocSymExtensionP6ObjectS6_
_ZN8HocPanel8hoc_itemEv
_ZN8HocPanel8menuItemEPKcS1_bP6Object
_ZN8HocPanel8save_allERSo
_ZN8HocPanel9data_pathEP12HocDataPathsb
_ZN8HocPanel9paneltoolEPKcS1_S1_P11ScenePickerP6ObjectS5_
_ZN8HocPanel9var_labelEPPcP6Object
_ZN8HocPanelC1EPKcb
_ZN8HocPanelC2EPKcb
_ZN8HocPanelD0Ev
_ZN8HocPanelD1Ev
_ZN8HocPanelD2Ev
_ZN8HocRadio4stopEv
_ZN8HocRadio5startEv
_ZN8HocRadioC1Ev
_ZN8HocRadioC2Ev
_ZN8HocRadioD0Ev
_ZN8HocRadioD1Ev
_ZN8HocRadioD2Ev
_ZN8IvocVect11buffer_sizeEi
_ZN8IvocVect11buffer_sizeEv
_ZN8IvocVect11temp_objvarEv
_ZN8IvocVect5labelEPKc
_ZN8IvocVectC1EP6Object
_ZN8IvocVectC1ERS_P6Object
_ZN8IvocVectC1EiP6Object
_ZN8IvocVectC1EidP6Object
_ZN8IvocVectC2EP6Object
_ZN8IvocVectC2ERS_P6Object
_ZN8IvocVectC2EiP6Object
_ZN8IvocVectC2EidP6Object
_ZN8IvocVectD1Ev
_ZN8IvocVectD2Ev
_ZN8KSSingle10next1transEP16KSSingleNodeData
_ZN8KSSingle10nextNtransEP16KSSingleNodeData
_ZN8KSSingle17singleevent_move_E
_ZN8KSSingle20singleevent_deliver_E
_ZN8KSSingle3oneEdP16KSSingleNodeDataP9NrnThread
_ZN8KSSingle4initEdPdP16KSSingleNodeDataP9NrnThread
_ZN8KSSingle5allocEP4Propi
_ZN8KSSingle5idum_E
_ZN8KSSingle5multiEdP16KSSingleNodeDataP9NrnThread
_ZN8KSSingle5stateEP4NodePdP5DatumP9NrnThread
_ZN8KSSingle5vres_E
_ZN8KSSingle8do1transEP16KSSingleNodeData
_ZN8KSSingle8doNtransEP16KSSingleNodeData
_ZN8KSSingle8rvalrandEi
_ZN8KSSingle9cv_updateEP4NodePdP5DatumP9NrnThread
_ZN8KSSingleC1EP6KSChan
_ZN8KSSingleC2EP6KSChan
_ZN8KSSingleD0Ev
_ZN8KSSingleD1Ev
_ZN8KSSingleD2Ev
_ZN8LineList6insertElP9GraphLine
_ZN8MWcanvas10beginPaintEP5HDC__RK7tagRECT
_ZN8MWcanvas10damage_allEv
_ZN8MWcanvas10setmapmodeEP5HDC__
_ZN8MWcanvas11back_bufferEv
_ZN8MWcanvas11damage_areaER11ivExtension
_ZN8MWcanvas11stencilFillEPK8ivBitmapPK7ivColor
_ZN8MWcanvas11transformerERK13ivTransformer
_ZN8MWcanvas12front_bufferEv
_ZN8MWcanvas12pop_clippingEv
_ZN8MWcanvas13pop_transformEv
_ZN8MWcanvas13push_clippingEb
_ZN8MWcanvas14push_transformEv
_ZN8MWcanvas15restrict_damageERK11ivExtension
_ZN8MWcanvas15restrict_damageEffff
_ZN8MWcanvas4sizeEff
_ZN8MWcanvas5psizeEii
_ZN8MWcanvas6damageERK11ivExtension
_ZN8MWcanvas6damageEffff
_ZN8MWcanvas6redrawEffff
_ZN8MWcanvas6repairEv
_ZN8MWcanvas8endPaintEv
_ZN8MWcanvas9transformERK13ivTransformer
_ZN8MWcanvasC1Ev
_ZN8MWcanvasC2Ev
_ZN8MWcanvasD0Ev
_ZN8MWcanvasD1Ev
_ZN8MWcanvasD2Ev
_ZN8MWwindow13registerClassEP11HINSTANCE__
_ZN8MWwindow3mapEv
_ZN8MWwindow4bindEv
_ZN8MWwindow5unmapEv
_ZN8MWwindow6unbindEv
_ZN8MWwindow7WndProcEjyx
_ZN8MWwindow8isMappedEv
_ZN8MWwindowC1Ev
_ZN8MWwindowC2Ev
_ZN8MWwindowD0Ev
_ZN8MWwindowD1Ev
_ZN8MWwindowD2Ev
_ZN8NetCvode10alloc_listEv
_ZN8NetCvode10create_hdpEi
_ZN8NetCvode10move_eventEP6TQItemdP9NrnThread
_ZN8NetCvode10netconlistEv
_ZN8NetCvode10null_eventEd
_ZN8NetCvode10psl_appendEP6PreSyn
_ZN8NetCvode10spike_statEv
_ZN8NetCvode10statisticsEi
_ZN8NetCvode10vec_removeEv
_ZN8NetCvode11delete_listEP5Cvode
_ZN8NetCvode11delete_listEv
_ZN8NetCvode11event_queueEP9NrnThread
_ZN8NetCvode11init_eventsEv
_ZN8NetCvode11init_globalEv
_ZN8NetCvode11p_constructEi
_ZN8NetCvode11pgvts_cvodeEdi
_ZN8NetCvode11pgvts_eventERd
_ZN8NetCvode11pgvts_leastERdRiS1_
_ZN8NetCvode11playrec_addEP10PlayRecord
_ZN8NetCvode11recalc_ptrsEv
_ZN8NetCvode11record_initEv
_ZN8NetCvode11set_CVRhsFnEv
_ZN8NetCvode12check_threshEP9NrnThread
_ZN8NetCvode12clear_eventsEv
_ZN8NetCvode12playrec_itemEP10PlayRecord
_ZN8NetCvode12playrec_itemEi
_ZN8NetCvode12playrec_usesEPv
_ZN8NetCvode12remove_eventEP6TQItemi
_ZN8NetCvode12update_ps2ntEv
_ZN8NetCvode12use_partransEv
_ZN8NetCvode13deliver_eventEdP9NrnThread
_ZN8NetCvode13error_weightsEv
_ZN8NetCvode13fill_local_baEPiR18NetCvodeThreadData
_ZN8NetCvode13local_retreatEdP5Cvode
_ZN8NetCvode13playrec_setupEv
_ZN8NetCvode13vecrecord_addEv
_ZN8NetCvode14consist_sec_pdEPKcP7SectionPd
_ZN8NetCvode14deliver_eventsEdP9NrnThread
_ZN8NetCvode14fill_global_baEP9NrnThreadiPP10BAMechList
_ZN8NetCvode14playrec_removeEP10PlayRecord
_ZN8NetCvode14ps_thread_linkEP6PreSyn
_ZN8NetCvode14set_enqueueingEv
_ZN8NetCvode14solver_prepareEv
_ZN8NetCvode15install_deliverEPdP7SectionP6ObjectS4_ddd
_ZN8NetCvode15local_microstepEP9NrnThread
_ZN8NetCvode15owned_by_threadEPd
_ZN8NetCvode15simgraph_removeEv
_ZN8NetCvode15vec_event_storeEv
_ZN8NetCvode16allthread_handleEdP8HocEventP9NrnThread
_ZN8NetCvode16allthread_handleEv
_ZN8NetCvode16del_cv_memb_listEP5Cvode
_ZN8NetCvode16del_cv_memb_listEv
_ZN8NetCvode16distribute_dinfoEPii
_ZN8NetCvode16event_queue_infoEv
_ZN8NetCvode16free_event_poolsEv
_ZN8NetCvode16global_microstepEv
_ZN8NetCvode16maxstate_analyseEP6SymbolPd
_ZN8NetCvode16maxstate_analyseEv
_ZN8NetCvode16state_magnitudesEv
_ZN8NetCvode16structure_changeEv
_ZN8NetCvode17allthread_least_tERi
_ZN8NetCvode17fill_local_ba_cntEiPiR18NetCvodeThreadData
_ZN8NetCvode17fornetcon_prepareEv
_ZN8NetCvode17presyn_disconnectEP6PreSyn
_ZN8NetCvode17print_event_queueEv
_ZN8NetCvode18deliver_net_eventsEP9NrnThread
_ZN8NetCvode18maxstate_analyze_1EiR5CvodeR15CvodeThreadData
_ZN8NetCvode18solve_when_threadsEd
_ZN8NetCvode19deliver_least_eventEP9NrnThread
_ZN8NetCvode21fixed_play_continuousEP9NrnThread
_ZN8NetCvode23fixed_record_continuousEP9NrnThread
_ZN8NetCvode27deliver_events_when_threadsEd
_ZN8NetCvode29global_microstep_when_threadsEv
_ZN8NetCvode4acorEv
_ZN8NetCvode4atolEd
_ZN8NetCvode4eps_E
_ZN8NetCvode4rtolEd
_ZN8NetCvode5cvbmlEiP6BAMechP5Cvode
_ZN8NetCvode5eventEdP13DiscreteEventP9NrnThread
_ZN8NetCvode5orderEi
_ZN8NetCvode5pgvtsEd
_ZN8NetCvode5solveEd
_ZN8NetCvode5stiffEi
_ZN8NetCvode6statesEv
_ZN8NetCvode7dstatesEv
_ZN8NetCvode7maxstepEd
_ZN8NetCvode7minstepEd
_ZN8NetCvode7re_initEd
_ZN8NetCvode7retreatEdP5Cvode
_ZN8NetCvode8is_localEv
_ZN8NetCvode8jacobianEi
_ZN8NetCvode8maxorderEi
_ZN8NetCvode8name2symEPKc
_ZN8NetCvode8sym2nameEP6Symbol
_ZN8NetCvode9bin_eventEdP13DiscreteEventP9NrnThread
_ZN8NetCvode9cellindexEv
_ZN8NetCvode9hoc_eventEdPKcP6ObjectiS3_
_ZN8NetCvode9localstepEb
_ZN8NetCvode9localstepEv
_ZN8NetCvode9play_initEv
_ZN8NetCvode9statenameB5cxx11Eii
_ZN8NetCvode9use_daspkEb
_ZN8NetCvode9use_daspkEv
_ZN8NetCvodeC1Eb
_ZN8NetCvodeC2Eb
_ZN8NetCvodeD0Ev
_ZN8NetCvodeD1Ev
_ZN8NetCvodeD2Ev
_ZN8OcMatrix11spgetrowvalEiiPi
_ZN8OcMatrix11temp_objvarEv
_ZN8OcMatrix3addEPS_S0_
_ZN8OcMatrix3detEPi
_ZN8OcMatrix3expEPS_
_ZN8OcMatrix3mepEii
_ZN8OcMatrix3powEiPS_
_ZN8OcMatrix4copyEPS_
_ZN8OcMatrix4fullEv
_ZN8OcMatrix4mulmEPS_S0_
_ZN8OcMatrix4mulsEdPS_
_ZN8OcMatrix4mulvEP8IvocVectS1_
_ZN8OcMatrix4ncolEv
_ZN8OcMatrix4nrowEv
_ZN8OcMatrix4solvEP8IvocVectS1_b
_ZN8OcMatrix4svd1EPS_S0_P8IvocVect
_ZN8OcMatrix4zeroEv
_ZN8OcMatrix5bcopyEPS_iiiiii
_ZN8OcMatrix5identEv
_ZN8OcMatrix5unimpEv
_ZN8OcMatrix6getcolEiP8IvocVect
_ZN8OcMatrix6getrowEiP8IvocVect
_ZN8OcMatrix6getvalEii
_ZN8OcMatrix6resizeEii
_ZN8OcMatrix6setcolEiP8IvocVect
_ZN8OcMatrix6setcolEid
_ZN8OcMatrix6setrowEiP8IvocVect
_ZN8OcMatrix6setrowEid
_ZN8OcMatrix7getdiagEiP8IvocVect
_ZN8OcMatrix7inverseEPS_
_ZN8OcMatrix7setdiagEiP8IvocVect
_ZN8OcMatrix7setdiagEid
_ZN8OcMatrix8instanceEiii
_ZN8OcMatrix8nonzerosERSt6vectorIiSaIiEES3_
_ZN8OcMatrix8sprowlenEi
_ZN8OcMatrix9symmeigenEPS_P8IvocVect
_ZN8OcMatrix9transposeEPS_
_ZN8OcMatrixC1Ei
_ZN8OcMatrixC2Ei
_ZN8OcMatrixD0Ev
_ZN8OcMatrixD1Ev
_ZN8OcMatrixD2Ev
_ZN8OcSlider10adjustableEv
_ZN8OcSlider10slider_valEv
_ZN8OcSlider11update_ptrsEv
_ZN8OcSlider13check_pointerEPvi
_ZN8OcSlider15update_hoc_itemEv
_ZN8OcSlider5auditEv
_ZN8OcSlider5writeERSo
_ZN8OcSlider6updateEP12ivObservable
_ZN8OcSlider9data_pathEP12HocDataPathsb
_ZN8OcSliderC1EPdfffiPKcbbP6ObjectS4_
_ZN8OcSliderC2EPdfffiPKcbbP6ObjectS4_
_ZN8OcSliderD0Ev
_ZN8OcSliderD1Ev
_ZN8OcSliderD2Ev
_ZN8STEState14add_transitionEP13Point_process
_ZN8ShowMenu7executeEv
_ZN8ShowMenuC1EP6ivMenu
_ZN8ShowMenuC2EP6ivMenu
_ZN8ShowMenuD0Ev
_ZN8ShowMenuD1Ev
_ZN8ShowMenuD2Ev
_ZN8SpecView7executeEv
_ZN8SpecViewD0Ev
_ZN8SpecViewD1Ev
_ZN8StmtInfo5parseEv
_ZN8StmtInfo8play_oneEd
_ZN8StmtInfoC1EPKc
_ZN8StmtInfoC2EPKc
_ZN8StmtInfoD0Ev
_ZN8StmtInfoD1Ev
_ZN8StmtInfoD2Ev
_ZN8Triangle8allocateEP8ivCanvasRK12ivAllocationR11ivExtension
_ZN8TriangleC1EfbPK7ivColorPK7ivBrush
_ZN8TriangleC2EfbPK7ivColorPK7ivBrush
_ZN8TriangleD0Ev
_ZN8TriangleD1Ev
_ZN8TriangleD2Ev
_ZN8WorkItemC1EiP12MessageValue
_ZN8WorkItemC2EiP12MessageValue
_ZN8WorkItemD0Ev
_ZN8WorkItemD1Ev
_ZN8WorkItemD2Ev
_ZN8ZoomIn107executeEv
_ZN8ZoomIn10D0Ev
_ZN8ZoomIn10D1Ev
_ZN8iv3_Text10deannotateEP18iv3_TextAnnotation
_ZN8iv3_Text10deannotateEv
_ZN8iv3_Text11context_keyEc
_ZN8iv3_Text11getLocationERjS0_
_ZN8iv3_Text11insertCharsEPKcj
_ZN8iv3_Text12page_forwardEj
_ZN8iv3_Text13page_backwardEj
_ZN8iv3_Text14scroll_forwardEj
_ZN8iv3_Text15scroll_backwardEj
_ZN8iv3_Text16delete_selectionEv
_ZN8iv3_Text17insertDirtyActionEP8ivAction
_ZN8iv3_Text17removeDirtyActionEP8ivAction
_ZN8iv3_Text3cutEv
_ZN8iv3_Text4copyEv
_ZN8iv3_Text4dragERK7ivEvent
_ZN8iv3_Text4fontEPK6ivFont
_ZN8iv3_Text4pickEP8ivCanvasRK12ivAllocationiR5ivHit
_ZN8iv3_Text5dirtyEb
_ZN8iv3_Text5dirtyEv
_ZN8iv3_Text5pasteEPKcj
_ZN8iv3_Text5pasteEv
_ZN8iv3_Text5pressERK7ivEvent
_ZN8iv3_Text5resetEv
_ZN8iv3_Text6damageERK14iv3_TextRegion
_ZN8iv3_Text6damageERK16iv3_TextLocation
_ZN8iv3_Text6damageEv
_ZN8iv3_Text6exposeEjj
_ZN8iv3_Text6exposeEjjjj
_ZN8iv3_Text6regionEjjjj
_ZN8iv3_Text6repairEv
_ZN8iv3_Text6undrawEv
_ZN8iv3_Text7handlerEv
_ZN8iv3_Text8allocateEP8ivCanvasRK12ivAllocationR11ivExtension
_ZN8iv3_Text8annotateEP18iv3_TextAnnotation
_ZN8iv3_Text8locationEjj
_ZN8iv3_Text8modifiedEv
_ZN8iv3_Text8readOnlyEb
_ZN8iv3_Text9backspaceEv
_ZN8iv3_Text9cur_lowerEjf
_ZN8iv3_Text9eraseLineEv
_ZN8iv3_Text9getRegionERjS0_S0_S0_
_ZN8iv3_Text9keystrokeERK7ivEvent
_ZN8iv3_Text9scroll_toEjf
_ZN8iv3_TextC1EjjP14iv3_TextBuffer
_ZN8iv3_TextC2EjjP14iv3_TextBuffer
_ZN8iv3_TextD0Ev
_ZN8iv3_TextD1Ev
_ZN8iv3_TextD2Ev
_ZN8ivActionC1Ev
_ZN8ivActionC2Ev
_ZN8ivActionD0Ev
_ZN8ivActionD1Ev
_ZN8ivActionD2Ev
_ZN8ivBitmap4openEPKc
_ZN8ivBitmap4pokeEbii
_ZN8ivBitmapC1EPKvjjii
_ZN8ivBitmapC1ERKS_
_ZN8ivBitmapC1Ev
_ZN8ivBitmapC2EPKvjjii
_ZN8ivBitmapC2ERKS_
_ZN8ivBitmapC2Ev
_ZN8ivBitmapD0Ev
_ZN8ivBitmapD1Ev
_ZN8ivBitmapD2Ev
_ZN8ivBorder8allocateEP8ivCanvasRK12ivAllocationR11ivExtension
_ZN8ivBorderC1EP7ivGlyphPK7ivColor
_ZN8ivBorderC1EP7ivGlyphPK7ivColorf
_ZN8ivBorderC2EP7ivGlyphPK7ivColor
_ZN8ivBorderC2EP7ivGlyphPK7ivColorf
_ZN8ivBorderD0Ev
_ZN8ivBorderD1Ev
_ZN8ivBorderD2Ev
_ZN8ivButton5enterEv
_ZN8ivButton5leaveEv
_ZN8ivButton5pressERK7ivEvent
_ZN8ivButton5stateEP15ivTelltaleState
_ZN8ivButton6actionEP8ivAction
_ZN8ivButton6updateEP12ivObservable
_ZN8ivButton7releaseERK7ivEvent
_ZN8ivButtonC1EP7ivGlyphP7ivStyleP15ivTelltaleStateP8ivAction
_ZN8ivButtonC2EP7ivGlyphP7ivStyleP15ivTelltaleStateP8ivAction
_ZN8ivButtonD0Ev
_ZN8ivButtonD1Ev
_ZN8ivButtonD2Ev
_ZN8ivCanvas11back_bufferEv
_ZN8ivCanvas12ellipse_pathEffff
_ZN8ivCanvas12front_bufferEv
_ZN8ivCanvas4lineEffffPK7ivColorPK7ivBrush
_ZN8ivCanvas4rectEffffPK7ivColorPK7ivBrush
_ZN8ivCanvas9clip_rectEffff
_ZN8ivCanvas9fill_rectEffffPK7ivColor
_ZN8ivCanvasC1Ev
_ZN8ivCanvasC2Ev
_ZN8ivCanvasD0Ev
_ZN8ivCanvasD1Ev
_ZN8ivCanvasD2Ev
_ZN8ivCursor4initEv
_ZN8ivCursorC1EPK6ivFontiiPK7ivColorS5_
_ZN8ivCursorC1EPK8ivBitmapS2_PK7ivColorS5_
_ZN8ivCursorC1EPKc
_ZN8ivCursorC1EiPK7ivColorS2_
_ZN8ivCursorC1EssPKiS1_PK7ivColorS4_
_ZN8ivCursorC2EPK6ivFontiiPK7ivColorS5_
_ZN8ivCursorC2EPK8ivBitmapS2_PK7ivColorS5_
_ZN8ivCursorC2EPKc
_ZN8ivCursorC2EiPK7ivColorS2_
_ZN8ivCursorC2EssPKiS1_PK7ivColorS4_
_ZN8ivCursorD1Ev
_ZN8ivCursorD2Ev
_ZN8ivDialog15post_at_alignedEffff
_ZN8ivDialog16post_for_alignedEP8ivWindowff
_ZN8ivDialog3runEv
_ZN8ivDialog7dismissEb
_ZN8ivDialogC1EP7ivGlyphP7ivStyle
_ZN8ivDialogC2EP7ivGlyphP7ivStyle
_ZN8ivDialogD0Ev
_ZN8ivDialogD1Ev
_ZN8ivDialogD2Ev
_ZN8ivLayout7requestElPK13ivRequisitionRS0_
_ZN8ivLayout8allocateERK12ivAllocationlPK13ivRequisitionPS0_
_ZN8ivLayoutC1Ev
_ZN8ivLayoutC2Ev
_ZN8ivLayoutD0Ev
_ZN8ivLayoutD1Ev
_ZN8ivLayoutD2Ev
_ZN8ivRaster4pokeEmmffff
_ZN8ivRasterC1ERKS_
_ZN8ivRasterC1Emm
_ZN8ivRasterC2ERKS_
_ZN8ivRasterC2Emm
_ZN8ivRasterD0Ev
_ZN8ivRasterD1Ev
_ZN8ivRasterD2Ev
_ZN8ivRegexp10EndOfMatchEi
_ZN8ivRegexp16BeginningOfMatchEi
_ZN8ivRegexp5MatchEPKcii
_ZN8ivRegexp6SearchEPKciii
_ZN8ivRegexpC1EPKc
_ZN8ivRegexpC1EPKci
_ZN8ivRegexpC2EPKc
_ZN8ivRegexpC2EPKci
_ZN8ivRegexpD1Ev
_ZN8ivRegexpD2Ev
_ZN8ivSMFKit13style_changedEP7ivStyle
_ZN8ivSMFKitC1Ev
_ZN8ivSMFKitC2Ev
_ZN8ivSMFKitD0Ev
_ZN8ivSMFKitD1Ev
_ZN8ivSMFKitD2Ev
_ZN8ivSlider12normal_thumbEP7ivGlyph
_ZN8ivSlider12redraw_thumbEv
_ZN8ivSlider13do_adjustmentEP12ivAdjustableMS0_FvjEj
_ZN8ivSlider13visible_thumbEP7ivGlyph
_ZN8ivSlider14allocate_thumbERK12ivAllocation
_ZN8ivSlider15forward_stepperEP9ivStepper
_ZN8ivSlider16apply_adjustmentEM12ivAdjustableFvjE
_ZN8ivSlider16backward_stepperEP9ivStepper
_ZN8ivSlider16reallocate_thumbERK12ivAllocation
_ZN8ivSlider18allocation_changedEP8ivCanvasRK12ivAllocation
_ZN8ivSlider22allot_thumb_major_axisERK12ivAllocationjP12ivAdjustablefRfR11ivAllotment
_ZN8ivSlider22allot_thumb_minor_axisERK11ivAllotmentRS0_
_ZN8ivSlider4dragERK7ivEvent
_ZN8ivSlider4moveERK7ivEvent
_ZN8ivSlider5pressERK7ivEvent
_ZN8ivSlider6undrawEv
_ZN8ivSlider6updateEP12ivObservable
_ZN8ivSlider7move_toEff
_ZN8ivSlider7releaseERK7ivEvent
_ZN8ivSlider8allocateEP8ivCanvasRK12ivAllocationR11ivExtension
_ZN8ivSlider9old_thumbEP7ivGlyph
_ZN8ivSliderC1EP7ivStyle
_ZN8ivSliderC2EP7ivStyle
_ZN8ivSliderD0Ev
_ZN8ivSliderD1Ev
_ZN8ivSliderD2Ev
_ZN8ivTarget4pickEP8ivCanvasRK12ivAllocationiR5ivHit
_ZN8ivTargetC1EP7ivGlyph17TargetSensitivity
_ZN8ivTargetC2EP7ivGlyph17TargetSensitivity
_ZN8ivTargetD0Ev
_ZN8ivTargetD1Ev
_ZN8ivTargetD2Ev
_ZN8ivWindow10pop_cursorEv
_ZN8ivWindow11push_cursorEv
_ZN8ivWindow14set_attributesEv
_ZN8ivWindow16compute_geometryEv
_ZN8ivWindow16default_geometryEv
_ZN8ivWindow3mapEv
_ZN8ivWindow4bindEv
_ZN8ivWindow4moveEff
_ZN8ivWindow5alignEff
_ZN8ivWindow5lowerEv
_ZN8ivWindow5placeEff
_ZN8ivWindow5raiseEv
_ZN8ivWindow5styleEP7ivStyle
_ZN8ivWindow5unmapEv
_ZN8ivWindow6cursorEP8ivCursor
_ZN8ivWindow6do_mapEv
_ZN8ivWindow6pplaceEii
_ZN8ivWindow6repairEv
_ZN8ivWindow6resizeEv
_ZN8ivWindow6unbindEv
_ZN8ivWindow7displayEP9ivDisplay
_ZN8ivWindow7receiveERK7ivEvent
_ZN8ivWindow9configureEv
_ZN8ivWindow9set_propsEv
_ZN8ivWindowC1EP11ivWindowRep
_ZN8ivWindowC1EP7ivGlyph
_ZN8ivWindowC2EP11ivWindowRep
_ZN8ivWindowC2EP7ivGlyph
_ZN8ivWindowD0Ev
_ZN8ivWindowD1Ev
_ZN8ivWindowD2Ev
_ZN8nrn_Rect4pickEP8ivCanvasRK12ivAllocationiR5ivHit
_ZN8nrn_Rect8allocateEP8ivCanvasRK12ivAllocationR11ivExtension
_ZN8nrn_RectC1EffffPK7ivColorPK7ivBrush
_ZN8nrn_RectC2EffffPK7ivColorPK7ivBrush
_ZN8nrn_RectD0Ev
_ZN8nrn_RectD1Ev
_ZN8osMemory4copyEPKvPvj
_ZN8osMemory4zeroEPvj
_ZN8osMemory7compareEPKvS1_j
_ZN8osString13set_to_substrEii
_ZN8osString9set_valueEPKc
_ZN8osString9set_valueEPKci
_ZN8osStringC1EPKc
_ZN8osStringC1EPKci
_ZN8osStringC1ERKS_
_ZN8osStringC1Ev
_ZN8osStringC2EPKc
_ZN8osStringC2EPKci
_ZN8osStringC2ERKS_
_ZN8osStringC2Ev
_ZN8osStringD0Ev
_ZN8osStringD1Ev
_ZN8osStringD2Ev
_ZN8osStringaSEPKc
_ZN8osStringaSERKS_
_ZN9ArrayPoolI5DatumE5grow_El
_ZN9ArrayPoolI5DatumEC1Ell
_ZN9ArrayPoolI5DatumED1Ev
_ZN9ArrayPoolIcE5grow_El
_ZN9ArrayPoolIcEC1Ell
_ZN9ArrayPoolIcED1Ev
_ZN9ArrayPoolIdE5allocEv
_ZN9ArrayPoolIdE5grow_El
_ZN9ArrayPoolIdEC1Ell
_ZN9ArrayPoolIdED1Ev
_ZN9BBSClient11post_resultEi
_ZN9BBSClient11return_argsEi
_ZN9BBSClient14look_take_todoEv
_ZN9BBSClient16look_take_resultEi
_ZN9BBSClient3getEPKci
_ZN9BBSClient3getEi
_ZN9BBSClient3getEii
_ZN9BBSClient4doneEv
_ZN9BBSClient4lookEPKc
_ZN9BBSClient4postEPKc
_ZN9BBSClient4sid_E
_ZN9BBSClient4takeEPKc
_ZN9BBSClient5getidEv
_ZN9BBSClient5pkintEi
_ZN9BBSClient5pkstrEPKc
_ZN9BBSClient5pkvecEiPd
_ZN9BBSClient5startEv
_ZN9BBSClient6getkeyEv
_ZN9BBSClient6perrorEPKc
_ZN9BBSClient6upkintEv
_ZN9BBSClient6upkstrEv
_ZN9BBSClient6upkvecEiPd
_ZN9BBSClient7pkbeginEv
_ZN9BBSClient8pkdoubleEd
_ZN9BBSClient8pkpickleEPKcy
_ZN9BBSClient8upkbeginEv
_ZN9BBSClient9look_takeEPKc
_ZN9BBSClient9post_todoEi
_ZN9BBSClient9save_argsEi
_ZN9BBSClient9take_todoEv
_ZN9BBSClient9upkdoubleEv
_ZN9BBSClient9upkpickleEPy
_ZN9BBSClientC1Ev
_ZN9BBSClientC2Ev
_ZN9BBSClientD0Ev
_ZN9BBSClientD1Ev
_ZN9BBSClientD2Ev
_ZN9BBSDirect11post_resultEi
_ZN9BBSDirect11return_argsEi
_ZN9BBSDirect14look_take_todoEv
_ZN9BBSDirect16look_take_resultEi
_ZN9BBSDirect18master_take_resultEi
_ZN9BBSDirect4doneEv
_ZN9BBSDirect4lookEPKc
_ZN9BBSDirect4postEPKc
_ZN9BBSDirect4takeEPKc
_ZN9BBSDirect5pkintEi
_ZN9BBSDirect5pkstrEPKc
_ZN9BBSDirect5pkvecEiPd
_ZN9BBSDirect5startEv
_ZN9BBSDirect6perrorEPKc
_ZN9BBSDirect6upkintEv
_ZN9BBSDirect6upkstrEv
_ZN9BBSDirect6upkvecEiPd
_ZN9BBSDirect7contextEv
_ZN9BBSDirect7pkbeginEv
_ZN9BBSDirect8pkdoubleEd
_ZN9BBSDirect8pkpickleEPKcy
_ZN9BBSDirect9look_takeEPKc
_ZN9BBSDirect9post_todoEi
_ZN9BBSDirect9save_argsEi
_ZN9BBSDirect9take_todoEv
_ZN9BBSDirect9upkdoubleEv
_ZN9BBSDirect9upkpickleEPy
_ZN9BBSDirectC1Ev
_ZN9BBSDirectC2Ev
_ZN9BBSDirectD0Ev
_ZN9BBSDirectD1Ev
_ZN9BBSDirectD2Ev
_ZN9BoxAdjust4dragERK7ivEvent
_ZN9BoxAdjust5pressERK7ivEvent
_ZN9BoxAdjust7releaseERK7ivEvent
_ZN9BoxAdjustC1EP5OcBoxP9OcBoxImplP7ivGlyphf
_ZN9BoxAdjustC2EP5OcBoxP9OcBoxImplP7ivGlyphf
_ZN9BoxAdjustD0Ev
_ZN9BoxAdjustD1Ev
_ZN9BoxAdjustD2Ev
_ZN9CellGroup13mk_cellgroupsEPS_
_ZN9CellGroup14artdata2index_E
_ZN9CellGroup14datumtransformEPS_
_ZN9CellGroup14has_net_event_E
_ZN9CellGroup15datumindex_fillEiRS_R12DatumIndicesP9Memb_list
_ZN9CellGroup15mk_tml_with_artEPS_
_ZN9CellGroup16deferred_netconsE
_ZN9CellGroup17get_mla_rankbytesEPS_
_ZN9CellGroup17nrncore_art2indexEPd
_ZN9CellGroup18mk_cgs_netcon_infoEPS_
_ZN9CellGroup19defer_clean_netconsEPS_
_ZN9CellGroup20deferred_type2artml_E
_ZN9CellGroup22clean_deferred_netconsEv
_ZN9CellGroup23setup_nrn_has_net_eventEv
_ZN9CellGroup26nrncore_pntindex_for_queueEPdii
_ZN9CellGroup9clean_artEPS_
_ZN9CellGroupC1Ev
_ZN9CellGroupC2Ev
_ZN9CellGroupD0Ev
_ZN9CellGroupD1Ev
_ZN9CellGroupD2Ev
_ZN9DownArrowC1EPK7ivColor
_ZN9DownArrowC2EPK7ivColor
_ZN9DownArrowD0Ev
_ZN9DownArrowD1Ev
_ZN9DownArrowD2Ev
_ZN9FastShapeC1Ev
_ZN9FastShapeC2Ev
_ZN9FastShapeD0Ev
_ZN9FastShapeD1Ev
_ZN9FastShapeD2Ev
_ZN9GAxisItem4saveERSoff
_ZN9GAxisItem5eraseEP5Sceneli
_ZN9GAxisItemD0Ev
_ZN9GAxisItemD1Ev
_ZN9GPolyLine10erase_lineEP5Scenel
_ZN9GPolyLine11pick_vectorEv
_ZN9GPolyLine4initEP7DataVecS1_PK7ivColorPK7ivBrush
_ZN9GPolyLine4pickEP8ivCanvasRK12ivAllocationiR5ivHit
_ZN9GPolyLine4plotEff
_ZN9GPolyLine4saveERSo
_ZN9GPolyLine5brushEPK7ivBrush
_ZN9GPolyLine5colorEPK7ivColor
_ZN9GPolyLine5labelEP6GLabel
_ZN9GPolyLine8allocateEP8ivCanvasRK12ivAllocationR11ivExtension
_ZN9GPolyLineC1EP7DataVecPK7ivColorPK7ivBrush
_ZN9GPolyLineC1EP7DataVecS1_PK7ivColorPK7ivBrush
_ZN9GPolyLineC1EPS_
_ZN9GPolyLineC2EP7DataVecPK7ivColorPK7ivBrush
_ZN9GPolyLineC2EP7DataVecS1_PK7ivColorPK7ivBrush
_ZN9GPolyLineC2EPS_
_ZN9GPolyLineD0Ev
_ZN9GPolyLineD1Ev
_ZN9GPolyLineD2Ev
_ZN9GeometricD0Ev
_ZN9GeometricD1Ev
_ZN9GeometricclEv
_ZN9GraphItem11is_polylineEv
_ZN9GraphItem14is_graphVectorEv
_ZN9GraphItem4pickEP8ivCanvasRK12ivAllocationiR5ivHit
_ZN9GraphItem4saveERSoff
_ZN9GraphItem5eraseEP5Sceneli
_ZN9GraphItem7is_fastEv
_ZN9GraphItem7is_markEv
_ZN9GraphItemC1EP7ivGlyphbb
_ZN9GraphItemC2EP7ivGlyphbb
_ZN9GraphItemD0Ev
_ZN9GraphItemD1Ev
_ZN9GraphItemD2Ev
_ZN9GraphLine10erase_lineEP5Scenel
_ZN9GraphLine10save_brushEPK7ivBrush
_ZN9GraphLine10save_colorEPK7ivColor
_ZN9GraphLine11change_exprEPKcPP7Symlist
_ZN9GraphLine11update_ptrsEv
_ZN9GraphLine13simgraph_initEv
_ZN9GraphLine15extension_startEv
_ZN9GraphLine17simgraph_activateEb
_ZN9GraphLine18extension_continueEv
_ZN9GraphLine19simgraph_continuousEd
_ZN9GraphLine4pickEP8ivCanvasRK12ivAllocationiR5ivHit
_ZN9GraphLine4plotEv
_ZN9GraphLine4saveERSo
_ZN9GraphLine5validEb
_ZN9GraphLine6updateEP12ivObservable
_ZN9GraphLineC1EPKcP7DataVecPP7SymlistPK7ivColorPK7ivBrushbPdP6Object
_ZN9GraphLineC2EPKcP7DataVecPP7SymlistPK7ivColorPK7ivBrushbPdP6Object
_ZN9GraphLineD0Ev
_ZN9GraphLineD1Ev
_ZN9GraphLineD2Ev
_ZN9HocAction4helpEv
_ZN9HocAction7executeEv
_ZN9HocAction8hoc_itemEP7HocItem
_ZN9HocActionC1EPKcP6Object
_ZN9HocActionC2EPKcP6Object
_ZN9HocActionD0Ev
_ZN9HocActionD1Ev
_ZN9HocActionD2Ev
_ZN9HocButton8instanceEPKcP8ivAction
_ZN9HocButtonC1EPKcP7ivGlyphP7ivStyleP15ivTelltaleStateP8ivAction
_ZN9HocButtonC2EPKcP7ivGlyphP7ivStyleP15ivTelltaleStateP8ivAction
_ZN9HocButtonD0Ev
_ZN9HocButtonD1Ev
_ZN9HocButtonD2Ev
_ZN9InstTable15find_and_removeERsPv
_ZN9InstTable4findERsPv
_ZN9InstTable6insertEPvs
_ZN9InstTable6removeEPv
_ZN9InstTableC1Ei
_ZN9InstTableC2Ei
_ZN9InstTableD1Ev
_ZN9InstTableD2Ev
_ZN9KSChanExp1fEd
_ZN9KSChanExp4typeEv
_ZN9KSChanExpD0Ev
_ZN9KSChanExpD1Ev
_ZN9KSPPIvghk3curEdPdP5Datumd
_ZN9KSPPIvghk5jacobEPdP5Datumd
_ZN9KSPPIvghkD0Ev
_ZN9KSPPIvghkD1Ev
_ZN9LeftArrowC1EPK7ivColor
_ZN9LeftArrowC2EPK7ivColor
_ZN9LeftArrowD0Ev
_ZN9LeftArrowD1Ev
_ZN9LeftArrowD2Ev
_ZN9LogNormalD0Ev
_ZN9LogNormalD1Ev
_ZN9LogNormalclEv
_ZN9MCellRan44cnt_E
_ZN9MCellRan45resetEv
_ZN9MCellRan46asLongEv
_ZN9MCellRan48asDoubleEv
_ZN9MCellRan4C1Ejj
_ZN9MCellRan4C2Ejj
_ZN9MCellRan4D0Ev
_ZN9MCellRan4D1Ev
_ZN9MCellRan4D2Ev
_ZN9MFKitInfo4loadEv
_ZN9MFKitInfo6unloadEv
_ZN9MFKitInfoC1EP7ivStyle
_ZN9MFKitInfoC2EP7ivStyle
_ZN9MFKitInfoD0Ev
_ZN9MFKitInfoD1Ev
_ZN9MFKitInfoD2Ev
_ZN9MWpalette11realizeIntoEP5HDC__i
_ZN9MWpalette8addEntryEiii
_ZN9MWpalette9findEntryEiiiRm
_ZN9MWpaletteC1EP13tagLOGPALETTE
_ZN9MWpaletteC1Ev
_ZN9MWpaletteC2EP13tagLOGPALETTE
_ZN9MWpaletteC2Ev
_ZN9MWpaletteD1Ev
_ZN9MWpaletteD2Ev
_ZN9MatrixMap3addEd
_ZN9MatrixMap5allocEiiPP4NodePi
_ZN9MatrixMap6mmfreeEv
_ZN9MatrixMapC1EP8OcMatrix
_ZN9MatrixMapC1ER8OcMatrix
_ZN9MatrixMapC2EP8OcMatrix
_ZN9MatrixMapC2ER8OcMatrix
_ZN9MatrixMapD1Ev
_ZN9MatrixMapD2Ev
_ZN9MenuStack4pushEP7HocMenu
_ZN9MenuStack5cleanEv
_ZN9MutexPoolI6TQItemE4growEv
_ZN9MutexPoolI6TQItemE5allocEv
_ZN9MutexPoolI6TQItemE6hpfreeEPS0_
_ZN9MutexPoolI6TQItemED1Ev
_ZN9MutexPoolI8HocEventE4growEv
_ZN9MutexPoolI8HocEventEC1Eli
_ZN9MutexPoolI9SelfEventE4growEv
_ZN9MutexPoolI9SelfEventE5allocEv
_ZN9MutexPoolI9SelfEventEC1Eli
_ZN9MutexPoolI9SelfEventED1Ev
_ZN9NonLinImp11input_phaseEi
_ZN9NonLinImp12transfer_ampEii
_ZN9NonLinImp14transfer_phaseEii
_ZN9NonLinImp5solveEi
_ZN9NonLinImp7computeEddi
_ZN9NonLinImp9input_ampEi
_ZN9NonLinImp9ratio_ampEii
_ZN9NonLinImpC1Ev
_ZN9NonLinImpC2Ev
_ZN9NonLinImpD0Ev
_ZN9NonLinImpD1Ev
_ZN9NonLinImpD2Ev
_ZN9NrnUpDown8instanceEv
_ZN9NrnUpDown9instance_E
_ZN9NrnUpDownC1EPK7ivColor
_ZN9NrnUpDownC2EPK7ivColor
_ZN9NrnUpDownD0Ev
_ZN9NrnUpDownD1Ev
_ZN9NrnUpDownD2Ev
_ZN9OcBrowser11append_itemEPKc
_ZN9OcBrowser11change_itemElPKc
_ZN9OcBrowser14standard_glyphEv
_ZN9OcBrowser17select_and_adjustEl
_ZN9OcBrowser6acceptEv
_ZN9OcBrowserC1EP8ivActionS1_
_ZN9OcBrowserC1Ev
_ZN9OcBrowserC2EP8ivActionS1_
_ZN9OcBrowserC2Ev
_ZN9OcBrowserD0Ev
_ZN9OcBrowserD1Ev
_ZN9OcBrowserD2Ev
_ZN9OcHandler4helpEv
_ZN9OcHandlerC1Ev
_ZN9OcHandlerC2Ev
_ZN9OcHandlerD0Ev
_ZN9OcHandlerD1Ev
_ZN9OcHandlerD2Ev
_ZN9OcPointer6assignEd
_ZN9OcPointer6updateEP12ivObservable
_ZN9OcPointerC1EPKcPd
_ZN9OcPointerC2EPKcPd
_ZN9OcPointerD0Ev
_ZN9OcPointerD1Ev
_ZN9OcPointerD2Ev
_ZN9PaperItem4pickEP8ivCanvasRK12ivAllocationiR5ivHit
_ZN9PaperItem5widthEv
_ZN9PaperItem6fsize_E
_ZN9PaperItem8allocateEP8ivCanvasRK12ivAllocationR11ivExtension
_ZN9PaperItemC1EP10ScreenItem
_ZN9PaperItemC2EP10ScreenItem
_ZN9PaperItemD0Ev
_ZN9PaperItemD1Ev
_ZN9PaperItemD2Ev
_ZN9PathValueC1Ev
_ZN9PathValueC2Ev
_ZN9PathValueD1Ev
_ZN9PathValueD2Ev
_ZN9PointMark10disconnectEP12ivObservable
_ZN9PointMark13everything_okEv
_ZN9PointMark6updateEP12ivObservable
_ZN9PointMark7set_locEP7Sectionf
_ZN9PointMarkC1EP7OcShapeP6ObjectPK7ivColorcf
_ZN9PointMarkC2EP7OcShapeP6ObjectPK7ivColorcf
_ZN9PointMarkD0Ev
_ZN9PointMarkD1Ev
_ZN9PointMarkD2Ev
_ZN9PopupMenu11append_itemEP10ivMenuItem
_ZN9PopupMenu5eventER7ivEvent
_ZN9PopupMenuC1Ev
_ZN9PopupMenuC2Ev
_ZN9PopupMenuD0Ev
_ZN9PopupMenuD1Ev
_ZN9PopupMenuD2Ev
_ZN9RangeExpr4fillEv
_ZN9RangeExpr4pvalEi
_ZN9RangeExpr6existsEi
_ZN9RangeExpr7computeEv
_ZN9RangeExprC1EPKcP6ObjectPSt6vectorI6SecPosSaIS5_EE
_ZN9RangeExprC2EPKcP6ObjectPSt6vectorI6SecPosSaIS5_EE
_ZN9RangeExprD0Ev
_ZN9RangeExprD1Ev
_ZN9RangeExprD2Ev
_ZN9Rectangle8allocateEP8ivCanvasRK12ivAllocationR11ivExtension
_ZN9RectangleC1EffbPK7ivColorPK7ivBrush
_ZN9RectangleC2EffbPK7ivColorPK7ivBrush
_ZN9RectangleD0Ev
_ZN9RectangleD1Ev
_ZN9RectangleD2Ev
_ZN9RoundView7executeEv
_ZN9RoundViewD0Ev
_ZN9RoundViewD1Ev
_ZN9SaveState10allocacellERNS_10ACellStateEi
_ZN9SaveState10checkacellERNS_10ACellStateEib
_ZN9SaveState10restorenetEv
_ZN9SaveState11restorenodeERNS_9NodeStateEP4Node
_ZN9SaveState12restoreacellERNS_10ACellStateEi
_ZN9SaveState14fread_SecStateEPNS_8SecStateEiP6_iobuf
_ZN9SaveState15fread_NodeStateEPNS_9NodeStateEiP6_iobuf
_ZN9SaveState15fwrite_SecStateEPNS_8SecStateEiP6_iobuf
_ZN9SaveState16fwrite_NodeStateEPNS_9NodeStateEiP6_iobuf
_ZN9SaveState4readEP6OcFileb
_ZN9SaveState4saveEv
_ZN9SaveState5allocEv
_ZN9SaveState5checkEb
_ZN9SaveState5writeEP6OcFileb
_ZN9SaveState6ssfreeEv
_ZN9SaveState6tqsaveEPK6TQItemi
_ZN9SaveState7free_tqEv
_ZN9SaveState7readnetEP6_iobuf
_ZN9SaveState7restoreEi
_ZN9SaveState7savenetEv
_ZN9SaveState7ssi_defEv
_ZN9SaveState7tqcountEPK6TQItemi
_ZN9SaveState8alloc_tqEv
_ZN9SaveState8allocnetEv
_ZN9SaveState8checknetEb
_ZN9SaveState8savenodeERNS_9NodeStateEP4Node
_ZN9SaveState8writenetEP6_iobuf
_ZN9SaveState9allocnodeERNS_9NodeStateEP4Node
_ZN9SaveState9checknodeERNS_9NodeStateEP4Nodeb
_ZN9SaveState9saveacellERNS_10ACellStateEi
_ZN9SaveStateC1Ev
_ZN9SaveStateC2Ev
_ZN9SaveStateD0Ev
_ZN9SaveStateD1Ev
_ZN9SaveStateD2Ev
_ZN9SceneInfo5pinfoEv
_ZN9SceneInfoC1EP7ivGlyphff
_ZN9SceneInfoC1Ev
_ZN9SceneInfoC2EP7ivGlyphff
_ZN9SceneInfoC2Ev
_ZN9SceneZoom4helpEv
_ZN9SceneZoom5eventER7ivEvent
_ZN9SceneZoomC1Ev
_ZN9SceneZoomC2Ev
_ZN9SceneZoomD0Ev
_ZN9SceneZoomD1Ev
_ZN9SceneZoomD2Ev
_ZN9SelfEvent13pgvts_deliverEdP8NetCvode
_ZN9SelfEvent14savestate_freeEv
_ZN9SelfEvent14savestate_readEP6_iobuf
_ZN9SelfEvent14savestate_saveEv
_ZN9SelfEvent15savestate_writeEP6_iobuf
_ZN9SelfEvent15selfevent_move_E
_ZN9SelfEvent15selfevent_send_E
_ZN9SelfEvent16call_net_receiveEP8NetCvode
_ZN9SelfEvent17savestate_restoreEdP8NetCvode
_ZN9SelfEvent18selfevent_deliver_E
_ZN9SelfEvent2prEPKcdP8NetCvode
_ZN9SelfEvent4typeEv
_ZN9SelfEvent5sepp_E
_ZN9SelfEvent6threadEv
_ZN9SelfEvent7deliverEdP8NetCvodeP9NrnThread
_ZN9SelfEvent8index2ppEii
_ZN9SelfEvent8pgvts_opERi
_ZN9SelfEventC1Ev
_ZN9SelfEventC2Ev
_ZN9SelfEventD0Ev
_ZN9SelfEventD1Ev
_ZN9SelfEventD2Ev
_ZN9SelfQueue10remove_allEv
_ZN9SelfQueue6insertEPv
_ZN9SelfQueue6removeEP6TQItem
_ZN9SelfQueueC1EP9MutexPoolI6TQItemEi
_ZN9SelfQueueC2EP9MutexPoolI6TQItemEi
_ZN9SelfQueueD0Ev
_ZN9SelfQueueD1Ev
_ZN9SelfQueueD2Ev
_ZN9ShapePlot10fast_flushEv
_ZN9ShapePlot10shape_plotEv
_ZN9ShapePlot11has_iv_viewEb
_ZN9ShapePlot11has_iv_viewEv
_ZN9ShapePlot11save_phase1ERSo
_ZN9ShapePlot11update_ptrsEv
_ZN9ShapePlot14make_time_plotEP7Sectionf
_ZN9ShapePlot15make_space_plotEP7SectionfS1_f
_ZN9ShapePlot19neuron_section_listEv
_ZN9ShapePlot3lowEv
_ZN9ShapePlot4highEv
_ZN9ShapePlot5flushEv
_ZN9ShapePlot5scaleEff
_ZN9ShapePlot6varobjEPv
_ZN9ShapePlot7observeEP11SectionList
_ZN9ShapePlot8variableEP6Symbol
_ZN9ShapePlot9erase_allEv
_ZN9ShapePlotC1EP6SymbolP11SectionList
_ZN9ShapePlotC2EP6SymbolP11SectionList
_ZN9ShapePlotD0Ev
_ZN9ShapePlotD1Ev
_ZN9ShapePlotD2Ev
_ZN9ShapeType7executeEv
_ZN9ShapeTypeC1Ei
_ZN9ShapeTypeC2Ei
_ZN9ShapeTypeD0Ev
_ZN9ShapeTypeD1Ev
_ZN9ShapeTypeD2Ev
_ZN9ShapeViewC1EP10ShapeScene
_ZN9ShapeViewC1EP10ShapeScenePf
_ZN9ShapeViewC2EP10ShapeScene
_ZN9ShapeViewC2EP10ShapeScenePf
_ZN9ShapeViewD0Ev
_ZN9ShapeViewD1Ev
_ZN9ShapeViewD2Ev
_ZN9SizeScene7executeEv
_ZN9SizeSceneD0Ev
_ZN9SizeSceneD1Ev
_ZN9StyleList6insertElP7ivStyle
_ZN9ZoomOut107executeEv
_ZN9ZoomOut10D0Ev
_ZN9ZoomOut10D1Ev
_ZN9ivBoxImpl10empty_ext_E
_ZN9ivBoxImpl10invalidateEv
_ZN9ivBoxImpl13full_allocateER16ivAllocationInfo
_ZN9ivBoxImpl15offset_allocateER16ivAllocationInfoff
_ZN9ivBoxImpl4infoEP8ivCanvasRK12ivAllocationR11ivExtension
_ZN9ivBoxImpl7requestEv
_ZN9ivBrowser12double_clickERK7ivEvent
_ZN9ivBrowser17append_selectableEP15ivTelltaleState
_ZN9ivBrowser17remove_selectableEl
_ZN9ivBrowser18replace_selectableElP15ivTelltaleState
_ZN9ivBrowser4dragERK7ivEvent
_ZN9ivBrowser5pressERK7ivEvent
_ZN9ivBrowser6activeElb
_ZN9ivBrowser6cancelEv
_ZN9ivBrowser6selectEl
_ZN9ivBrowser6updateEP12ivObservable
_ZN9ivBrowser7releaseERK7ivEvent
_ZN9ivBrowserC1EP7ivGlyphP7ivStyleP8ivActionS5_
_ZN9ivBrowserC2EP7ivGlyphP7ivStyleP8ivActionS5_
_ZN9ivBrowserD0Ev
_ZN9ivBrowserD1Ev
_ZN9ivBrowserD2Ev
_ZN9ivDisplay10set_screenEi
_ZN9ivDisplay12move_pointerEff
_ZN9ivDisplay13set_key_clickEi
_ZN9ivDisplay14find_selectionEPKc
_ZN9ivDisplay14find_selectionERK8osString
_ZN9ivDisplay15set_auto_repeatEb
_ZN9ivDisplay17primary_selectionEv
_ZN9ivDisplay19clipboard_selectionEv
_ZN9ivDisplay19secondary_selectionEv
_ZN9ivDisplay20set_pointer_feedbackEii
_ZN9ivDisplay3getER7ivEvent
_ZN9ivDisplay3putERK7ivEvent
_ZN9ivDisplay4grabEP8ivWindowP9ivHandler
_ZN9ivDisplay4openEPKc
_ZN9ivDisplay4openERK8osString
_ZN9ivDisplay4openEv
_ZN9ivDisplay4syncEv
_ZN9ivDisplay5closeEv
_ZN9ivDisplay5flushEv
_ZN9ivDisplay5styleEP7ivStyle
_ZN9ivDisplay6closedEv
_ZN9ivDisplay6repairEv
_ZN9ivDisplay6ungrabEP9ivHandlerb
_ZN9ivDisplay7rescaleEv
_ZN9ivDisplay9ring_bellEi
_ZN9ivDisplayC1EP12ivDisplayRep
_ZN9ivDisplayC2EP12ivDisplayRep
_ZN9ivDisplayD0Ev
_ZN9ivDisplayD1Ev
_ZN9ivDisplayD2Ev
_ZN9ivFontRep10fontWindowEv
_ZN9ivFontRep13AssociateWithEP5HDC__
_ZN9ivFontRep16CheckAssociationEv
_ZN9ivFontRep5ScaleEf
_ZN9ivFontRep9CharWidthEi
_ZN9ivFontRepC1EPKcii
_ZN9ivFontRepC2EPKcii
_ZN9ivFontRepD1Ev
_ZN9ivFontRepD2Ev
_ZN9ivHandlerC1Ev
_ZN9ivHandlerC2Ev
_ZN9ivHandlerD0Ev
_ZN9ivHandlerD1Ev
_ZN9ivHandlerD2Ev
_ZN9ivHitImpl4areaEv
_ZN9ivHitImpl4initEffff
_ZN9ivHitImpl4itemEil
_ZN9ivHitImpl5hfreeEv
_ZN9ivHitImpl8add_itemEbiP7ivGlyphlP9ivHandlerl
_ZN9ivPrinter10close_pathEv
_ZN9ivPrinter10damage_allEv
_ZN9ivPrinter11damage_areaER11ivExtension
_ZN9ivPrinter11transformerERK13ivTransformer
_ZN9ivPrinter12pop_clippingEv
_ZN9ivPrinter13pop_transformEv
_ZN9ivPrinter13push_clippingEb
_ZN9ivPrinter14push_transformEv
_ZN9ivPrinter15restrict_damageERK11ivExtension
_ZN9ivPrinter15restrict_damageEffff
_ZN9ivPrinter4clipEv
_ZN9ivPrinter4fillEPK7ivColor
_ZN9ivPrinter4pageEPKc
_ZN9ivPrinter4sizeEff
_ZN9ivPrinter5flushEv
_ZN9ivPrinter5imageEPK8ivRasterff
_ZN9ivPrinter5psizeEii
_ZN9ivPrinter6damageERK11ivExtension
_ZN9ivPrinter6damageEffff
_ZN9ivPrinter6epilogEv
_ZN9ivPrinter6prologEPKc
_ZN9ivPrinter6redrawEffff
_ZN9ivPrinter6repairEv
_ZN9ivPrinter6resizeEffff
_ZN9ivPrinter6strokeEPK7ivColorPK7ivBrush
_ZN9ivPrinter7commentEPKc
_ZN9ivPrinter7line_toEff
_ZN9ivPrinter7move_toEff
_ZN9ivPrinter7stencilEPK8ivBitmapPK7ivColorff
_ZN9ivPrinter8curve_toEffffff
_ZN9ivPrinter8new_pathEv
_ZN9ivPrinter9characterEPK6ivFontlfPK7ivColorff
_ZN9ivPrinter9transformERK13ivTransformer
_ZN9ivPrinterC1EPSo
_ZN9ivPrinterC2EPSo
_ZN9ivPrinterD0Ev
_ZN9ivPrinterD1Ev
_ZN9ivPrinterD2Ev
_ZN9ivSession10disconnectEP9ivDisplay
_ZN9ivSession10run_windowEP8ivWindow
_ZN9ivSession15default_displayEP9ivDisplay
_ZN9ivSession15installLocationEv
_ZN9ivSession3runEv
_ZN9ivSession4pollER7ivEvent
_ZN9ivSession4quitEv
_ZN9ivSession4readER7ivEvent
_ZN9ivSession4readEllR7ivEvent
_ZN9ivSession6unquitEv
_ZN9ivSession6unreadER7ivEvent
_ZN9ivSession7connectEPKc
_ZN9ivSession7connectERK8osString
_ZN9ivSession8instanceEv
_ZN9ivSessionC1EPKcRiPPcPK12ivOptionDescPK14ivPropertyData
_ZN9ivSessionC2EPKcRiPPcPK12ivOptionDescPK14ivPropertyData
_ZN9ivSessionD0Ev
_ZN9ivSessionD1Ev
_ZN9ivSessionD2Ev
_ZN9ivStencil8allocateEP8ivCanvasRK12ivAllocationR11ivExtension
_ZN9ivStencilC1EPK8ivBitmapPK7ivColor
_ZN9ivStencilC2EPK8ivBitmapPK7ivColor
_ZN9ivStencilD0Ev
_ZN9ivStencilD1Ev
_ZN9ivStencilD2Ev
_ZN9ivStepper13stop_steppingEv
_ZN9ivStepper14start_steppingEv
_ZN9ivStepper4tickEll
_ZN9ivStepper5pressERK7ivEvent
_ZN9ivStepper7releaseERK7ivEvent
_ZN9ivStepperC1EP7ivGlyphP7ivStyleP15ivTelltaleStateP8ivAction
_ZN9ivStepperC2EP7ivGlyphP7ivStyleP15ivTelltaleStateP8ivAction
_ZN9ivStepperD0Ev
_ZN9ivStepperD1Ev
_ZN9ivStepperD2Ev
_ZN9ivXSlider10disconnectEP12ivObservable
_ZN9ivXSlider14allocate_thumbERK12ivAllocation
_ZN9ivXSlider16apply_adjustmentEM12ivAdjustableFvjE
_ZN9ivXSlider7move_toEff
_ZN9ivXSliderC1EP7ivStyleP12ivAdjustable
_ZN9ivXSliderC2EP7ivStyleP12ivAdjustable
_ZN9ivXSliderD0Ev
_ZN9ivXSliderD1Ev
_ZN9ivXSliderD2Ev
_ZN9ivYSlider10disconnectEP12ivObservable
_ZN9ivYSlider14allocate_thumbERK12ivAllocation
_ZN9ivYSlider16apply_adjustmentEM12ivAdjustableFvjE
_ZN9ivYSlider7move_toEff
_ZN9ivYSliderC1EP7ivStyleP12ivAdjustable
_ZN9ivYSliderC2EP7ivStyleP12ivAdjustable
_ZN9ivYSliderD0Ev
_ZN9ivYSliderD1Ev
_ZN9ivYSliderD2Ev
_ZNK10ColorValue8no_valueEv
_ZNK10ColorValue9get_colorEf
_ZNK10MFKitFrame10draw_frameEP8ivCanvasRK12ivAllocationf
_ZNK10MFKitFrame4drawEP8ivCanvasRK12ivAllocation
_ZNK10MFKitFrame4infoEv
_ZNK10MWcanvas1611transformerEv
_ZNK10MWcanvas1614transformAngleEv
_ZNK10MacPrinter11transformerEv
_ZNK10MacPrinter5widthEv
_ZNK10MacPrinter6heightEv
_ZNK10MacPrinter6pwidthEv
_ZNK10MacPrinter6windowEv
_ZNK10MacPrinter7pheightEv
_ZNK10PaperScene3mbsEv
_ZNK10RightArrow4drawEP8ivCanvasRK12ivAllocation
_ZNK10Rotation3d14inverse_rotateEPfS0_
_ZNK10Rotation3d6rotateEPfS0_
_ZNK10Rotation3d6rotateEfffPf
_ZNK10Rotation3d6x_axisERfS0_
_ZNK10Rotation3d6y_axisERfS0_
_ZNK10Rotation3d6z_axisERfS0_
_ZNK10RubberLine15get_line_canvasERfS0_S0_S0_
_ZNK10RubberLine8get_lineERfS0_S0_S0_
_ZNK10RubberRect15get_rect_canvasERfS0_S0_S0_
_ZNK10RubberRect8get_rectERfS0_S0_S0_
_ZNK10ScreenItem4drawEP8ivCanvasRK12ivAllocation
_ZNK10ScreenItem7requestER13ivRequisition
_ZNK10ShapeScene9wholeplotERfS0_S0_S0_
_ZNK10SymChooser8selectedEv
_ZNK10SymbolItem12is_directoryEv
_ZNK10ValEdLabel4drawEP8ivCanvasRK12ivAllocation
_ZNK10ivEventRep11displayXposEv
_ZNK10ivEventRep11displayYposEv
_ZNK10ivMenuImpl13selected_menuEv
_ZNK10ivMenuItem4bodyEv
_ZNK10ivResource11UnreferenceEv
_ZNK10ivResource14unref_deferredEv
_ZNK10ivResource3refEv
_ZNK10ivResource5unrefEv
_ZNK10ivResource9ReferenceEv
_ZNK10ivTelltale5stateEv
_ZNK10osStdInput6lengthEv
_ZNK11GrGlyphItem4drawEP8ivCanvasRK12ivAllocation
_ZNK11GrGlyphItem5printEP9ivPrinterRK12ivAllocation
_ZNK11GraphVector4nameEv
_ZNK11GraphVector7requestER13ivRequisition
_ZNK11GraphVector7trivialEv
_ZNK11LayoutLayer4drawEP8ivCanvasRK12ivAllocation
_ZNK11LayoutLayer5printEP9ivPrinterRK12ivAllocation
_ZNK11MpiWorkItem14todo_less_thanEPKS_
_ZNK11NrnProperty10prop_indexEPK6Symbol
_ZNK11NrnProperty4nameEv
_ZNK11NrnProperty4propEv
_ZNK11NrnProperty4typeEv
_ZNK11NrnProperty8is_pointEv
_ZNK11NrnProperty8var_typeEP6Symbol
_ZNK11NrnProperty9prop_pvalEPK6Symboli
_ZNK11SMFKitFrame10draw_frameEP8ivCanvasRK12ivAllocationf
_ZNK11SMFKitFrame4drawEP8ivCanvasRK12ivAllocation
_ZNK11SMFKitThumb4drawEP8ivCanvasRK12ivAllocation
_ZNK11ScreenScene3mbsEv
_ZNK11ValueString15null_terminatedEv
_ZNK11ivAllotment6equalsERKS_f
_ZNK11ivBitmapRep4peekEii
_ZNK11ivDialogKit10widget_kitEv
_ZNK11ivDialogKit12field_editorEPKcP7ivStyleP19ivFieldEditorAction
_ZNK11ivDialogKit12field_editorERK8osStringP7ivStyleP19ivFieldEditorAction
_ZNK11ivDialogKit12file_chooserEPKcP7ivStyleP19ivFileChooserAction
_ZNK11ivDialogKit12file_chooserERK8osStringP7ivStyleP19ivFileChooserAction
_ZNK11ivDialogKit17make_field_editorERK8osStringP11ivWidgetKitP7ivStyleP19ivFieldEditorAction
_ZNK11ivDialogKit17make_file_chooserERK8osStringP11ivWidgetKitP7ivStyleP19ivFileChooserAction
_ZNK11ivLayoutKit10vscrollboxEl
_ZNK11ivLayoutKit11shape_of_xyEP7ivGlyphS1_
_ZNK11ivLayoutKit13discretionaryEiP7ivGlyph
_ZNK11ivLayoutKit13discretionaryEiP7ivGlyphS1_S1_S1_
_ZNK11ivLayoutKit15fixed_dimensionEP7ivGlyphjf
_ZNK11ivLayoutKit16center_dimensionEP7ivGlyphjf
_ZNK11ivLayoutKit17natural_dimensionEP7ivGlyphjf
_ZNK11ivLayoutKit18flexible_dimensionEP7ivGlyphjff
_ZNK11ivLayoutKit18hbox_first_alignedEP7ivGlyphS1_S1_S1_S1_S1_S1_S1_S1_S1_
_ZNK11ivLayoutKit18hbox_first_alignedEl
_ZNK11ivLayoutKit18vbox_first_alignedEP7ivGlyphS1_S1_S1_S1_S1_S1_S1_S1_S1_
_ZNK11ivLayoutKit18vbox_first_alignedEl
_ZNK11ivLayoutKit3boxEP8ivLayoutl
_ZNK11ivLayoutKit4backEP7ivGlyphS1_
_ZNK11ivLayoutKit4deckEP7ivGlyphS1_S1_S1_S1_S1_S1_S1_S1_S1_
_ZNK11ivLayoutKit4deckEl
_ZNK11ivLayoutKit4glueERK13ivRequisition
_ZNK11ivLayoutKit4glueEjffff
_ZNK11ivLayoutKit4hboxEP7ivGlyphS1_S1_S1_S1_S1_S1_S1_S1_S1_
_ZNK11ivLayoutKit4hboxEl
_ZNK11ivLayoutKit4vboxEP7ivGlyphS1_S1_S1_S1_S1_S1_S1_S1_S1_
_ZNK11ivLayoutKit4vboxEl
_ZNK11ivLayoutKit5fixedEP7ivGlyphff
_ZNK11ivLayoutKit5frontEP7ivGlyphS1_
_ZNK11ivLayoutKit5hglueEf
_ZNK11ivLayoutKit5hglueEfff
_ZNK11ivLayoutKit5hglueEffff
_ZNK11ivLayoutKit5hglueEv
_ZNK11ivLayoutKit5strutEPK6ivFontfff
_ZNK11ivLayoutKit5vglueEf
_ZNK11ivLayoutKit5vglueEfff
_ZNK11ivLayoutKit5vglueEffff
_ZNK11ivLayoutKit5vglueEv
_ZNK11ivLayoutKit6centerEP7ivGlyphff
_ZNK11ivLayoutKit6hfixedEP7ivGlyphf
_ZNK11ivLayoutKit6hspaceEf
_ZNK11ivLayoutKit6hstrutEfffff
_ZNK11ivLayoutKit6marginEP7ivGlyphf
_ZNK11ivLayoutKit6marginEP7ivGlyphff
_ZNK11ivLayoutKit6marginEP7ivGlyphffff
_ZNK11ivLayoutKit6marginEP7ivGlyphffffffffffff
_ZNK11ivLayoutKit6spacesEifPK6ivFontPK7ivColor
_ZNK11ivLayoutKit6vfixedEP7ivGlyphf
_ZNK11ivLayoutKit6vspaceEf
_ZNK11ivLayoutKit6vstrutEfffff
_ZNK11ivLayoutKit7betweenEP7ivGlyphS1_S1_
_ZNK11ivLayoutKit7bmarginEP7ivGlyphf
_ZNK11ivLayoutKit7bmarginEP7ivGlyphfff
_ZNK11ivLayoutKit7hcenterEP7ivGlyphf
_ZNK11ivLayoutKit7hmarginEP7ivGlyphf
_ZNK11ivLayoutKit7hmarginEP7ivGlyphff
_ZNK11ivLayoutKit7hmarginEP7ivGlyphffffff
_ZNK11ivLayoutKit7lmarginEP7ivGlyphf
_ZNK11ivLayoutKit7lmarginEP7ivGlyphfff
_ZNK11ivLayoutKit7naturalEP7ivGlyphff
_ZNK11ivLayoutKit7overlayEP7ivGlyphS1_S1_S1_S1_S1_S1_S1_S1_S1_
_ZNK11ivLayoutKit7rmarginEP7ivGlyphf
_ZNK11ivLayoutKit7rmarginEP7ivGlyphfff
_ZNK11ivLayoutKit7tmarginEP7ivGlyphf
_ZNK11ivLayoutKit7tmarginEP7ivGlyphfff
_ZNK11ivLayoutKit7vcenterEP7ivGlyphf
_ZNK11ivLayoutKit7vmarginEP7ivGlyphf
_ZNK11ivLayoutKit7vmarginEP7ivGlyphff
_ZNK11ivLayoutKit7vmarginEP7ivGlyphffffff
_ZNK11ivLayoutKit8flexibleEP7ivGlyphff
_ZNK11ivLayoutKit8hnaturalEP7ivGlyphf
_ZNK11ivLayoutKit8shape_ofEP7ivGlyph
_ZNK11ivLayoutKit8vnaturalEP7ivGlyphf
_ZNK11ivLayoutKit9hflexibleEP7ivGlyphff
_ZNK11ivLayoutKit9vflexibleEP7ivGlyphff
_ZNK11ivMonoGlyph4bodyEv
_ZNK11ivMonoGlyph4drawEP8ivCanvasRK12ivAllocation
_ZNK11ivMonoGlyph5countEv
_ZNK11ivMonoGlyph5printEP9ivPrinterRK12ivAllocation
_ZNK11ivMonoGlyph7requestER13ivRequisition
_ZNK11ivMonoGlyph9allotmentEljR11ivAllotment
_ZNK11ivMonoGlyph9componentEl
_ZNK11ivPlacement4drawEP8ivCanvasRK12ivAllocation
_ZNK11ivPlacement5printEP9ivPrinterRK12ivAllocation
_ZNK11ivPlacement7requestER13ivRequisition
_ZNK11ivPolyGlyph5countEv
_ZNK11ivPolyGlyph9componentEl
_ZNK11ivScrollBox10last_shownEv
_ZNK11ivScrollBox11first_shownEv
_ZNK11ivScrollBox5shownEl
_ZNK11ivWidgetKit10backgroundEv
_ZNK11ivWidgetKit10down_moverEP12ivAdjustable
_ZNK11ivWidgetKit10foregroundEv
_ZNK11ivWidgetKit10left_moverEP12ivAdjustable
_ZNK11ivWidgetKit11fancy_labelEPKc
_ZNK11ivWidgetKit11fancy_labelERK8osString
_ZNK11ivWidgetKit11hand_cursorEv
_ZNK11ivWidgetKit11hscroll_barEP12ivAdjustable
_ZNK11ivWidgetKit11push_buttonEP7ivGlyphP8ivAction
_ZNK11ivWidgetKit11push_buttonEPKcP8ivAction
_ZNK11ivWidgetKit11push_buttonERK8osStringP8ivAction
_ZNK11ivWidgetKit11right_moverEP12ivAdjustable
_ZNK11ivWidgetKit11vscroll_barEP12ivAdjustable
_ZNK11ivWidgetKit12dfast_cursorEv
_ZNK11ivWidgetKit12lfast_cursorEv
_ZNK11ivWidgetKit12menubar_itemEP7ivGlyph
_ZNK11ivWidgetKit12menubar_itemEPKc
_ZNK11ivWidgetKit12menubar_itemERK8osString
_ZNK11ivWidgetKit12radio_buttonEP15ivTelltaleGroupP7ivGlyphP8ivAction
_ZNK11ivWidgetKit12radio_buttonEP15ivTelltaleGroupPKcP8ivAction
_ZNK11ivWidgetKit12radio_buttonEP15ivTelltaleGroupRK8osStringP8ivAction
_ZNK11ivWidgetKit12raised_labelEPKc
_ZNK11ivWidgetKit12raised_labelERK8osString
_ZNK11ivWidgetKit12rfast_cursorEv
_ZNK11ivWidgetKit12ufast_cursorEv
_ZNK11ivWidgetKit13ldfast_cursorEv
_ZNK11ivWidgetKit13lufast_cursorEv
_ZNK11ivWidgetKit13rdfast_cursorEv
_ZNK11ivWidgetKit13rufast_cursorEv
_ZNK11ivWidgetKit14chiseled_labelEPKc
_ZNK11ivWidgetKit14chiseled_labelERK8osString
_ZNK11ivWidgetKit14default_buttonEP7ivGlyphP8ivAction
_ZNK11ivWidgetKit14default_buttonEPKcP8ivAction
_ZNK11ivWidgetKit14default_buttonERK8osStringP8ivAction
_ZNK11ivWidgetKit14palette_buttonEP7ivGlyphP8ivAction
_ZNK11ivWidgetKit14palette_buttonEPKcP8ivAction
_ZNK11ivWidgetKit14palette_buttonERK8osStringP8ivAction
_ZNK11ivWidgetKit14pullright_lookEv
_ZNK11ivWidgetKit15check_menu_itemEP7ivGlyph
_ZNK11ivWidgetKit15check_menu_itemEPKc
_ZNK11ivWidgetKit15check_menu_itemERK8osString
_ZNK11ivWidgetKit15radio_menu_itemEP15ivTelltaleGroupP7ivGlyph
_ZNK11ivWidgetKit15radio_menu_itemEP15ivTelltaleGroupPKc
_ZNK11ivWidgetKit15radio_menu_itemEP15ivTelltaleGroupRK8osString
_ZNK11ivWidgetKit19menu_item_separatorEv
_ZNK11ivWidgetKit3guiEv
_ZNK11ivWidgetKit4fontEv
_ZNK11ivWidgetKit4quitEv
_ZNK11ivWidgetKit5labelEPKc
_ZNK11ivWidgetKit5labelERK8osString
_ZNK11ivWidgetKit5styleEv
_ZNK11ivWidgetKit6pannerEP12ivAdjustableS1_
_ZNK11ivWidgetKit7hsliderEP12ivAdjustable
_ZNK11ivWidgetKit7menubarEv
_ZNK11ivWidgetKit7reducerEP12ivAdjustable
_ZNK11ivWidgetKit7vsliderEP12ivAdjustable
_ZNK11ivWidgetKit8enlargerEP12ivAdjustable
_ZNK11ivWidgetKit8pulldownEv
_ZNK11ivWidgetKit8up_moverEP12ivAdjustable
_ZNK11ivWidgetKit9check_boxEP7ivGlyphP8ivAction
_ZNK11ivWidgetKit9check_boxEPKcP8ivAction
_ZNK11ivWidgetKit9check_boxERK8osStringP8ivAction
_ZNK11ivWidgetKit9menu_itemEP7ivGlyph
_ZNK11ivWidgetKit9menu_itemEPKc
_ZNK11ivWidgetKit9menu_itemERK8osString
_ZNK11ivWidgetKit9pullrightEv
_ZNK11osDirectory12is_directoryEi
_ZNK11osDirectory4nameEi
_ZNK11osDirectory4pathEv
_ZNK11osDirectory5countEv
_ZNK11osDirectory5indexERK8osString
_ZNK12BoundedValue10cur_lengthEj
_ZNK12BoundedValue5lowerEj
_ZNK12BoundedValue5upperEj
_ZNK12BoundedValue6lengthEj
_ZNK12BoundedValue9cur_lowerEj
_ZNK12BoundedValue9cur_upperEj
_ZNK12BrushPalette5brushEPK7ivBrush
_ZNK12BrushPalette5brushEi
_ZNK12ColorPalette5colorEPK7ivColor
_ZNK12ColorPalette5colorEi
_ZNK12HocDataPaths12retrieve_symEPd
_ZNK12HocDataPaths8retrieveEPPc
_ZNK12HocDataPaths8retrieveEPd
_ZNK12HocValEditor5printEP9ivPrinterRK12ivAllocation
_ZNK12HocValEditor8variableEv
_ZNK12NPInsetFrame5printEP9ivPrinterRK12ivAllocation
_ZNK12RangeVarPlot7requestER13ivRequisition
_ZNK12ShapeSection10bevel_joinEP8ivCanvasPK7ivColorif
_ZNK12ShapeSection11draw_pointsEP8ivCanvasPK7ivColorii
_ZNK12ShapeSection12arc_positionEff
_ZNK12ShapeSection12near_sectionEfff
_ZNK12ShapeSection15fastidious_drawEP8ivCanvasPK7ivColoriff
_ZNK12ShapeSection4drawEP8ivCanvasRK12ivAllocation
_ZNK12ShapeSection4goodEv
_ZNK12ShapeSection4sizeERfS0_S0_S0_
_ZNK12ShapeSection7requestER13ivRequisition
_ZNK12ShapeSection7sectionEv
_ZNK12ShapeSection8draw_segEP8ivCanvasPK7ivColori
_ZNK12ShapeSection8how_nearEff
_ZNK12ShapeSection9fast_drawEP8ivCanvasffb
_ZNK12ShapeSection9get_coordEdRfS0_
_ZNK12ShapeSection9trapezoidEP8ivCanvasPK7ivColorffffff
_ZNK12ShapeSection9trapezoidEP8ivCanvasPK7ivColori
_ZNK12SpecialPatch4drawEP8ivCanvasRK12ivAllocation
_ZNK12SpecialPatch7requestER13ivRequisition
_ZNK12SymDirectory10whole_nameEiR12osCopyString
_ZNK12SymDirectory11array_indexEi
_ZNK12SymDirectory12is_directoryEi
_ZNK12SymDirectory4nameEi
_ZNK12SymDirectory4pathEv
_ZNK12SymDirectory5countEv
_ZNK12SymDirectory5indexERK8osString
_ZNK12SymDirectory6objectEv
_ZNK12SymDirectory6symbolEi
_ZNK12SymDirectory8is_pysecEi
_ZNK12iv3_TextLine7requestER13ivRequisition
_ZNK12ivAdjustable10cur_lengthEj
_ZNK12ivAdjustable10notify_allEv
_ZNK12ivAdjustable10observableEj
_ZNK12ivAdjustable12large_scrollEj
_ZNK12ivAdjustable12small_scrollEj
_ZNK12ivAdjustable5lowerEj
_ZNK12ivAdjustable5upperEj
_ZNK12ivAdjustable6lengthEj
_ZNK12ivAdjustable6notifyEj
_ZNK12ivAdjustable9constrainEjRf
_ZNK12ivAdjustable9cur_lowerEj
_ZNK12ivAdjustable9cur_upperEj
_ZNK12ivAllocation6equalsERKS_f
_ZNK12ivAllocation9allotmentEj
_ZNK12ivBackground4drawEP8ivCanvasRK12ivAllocation
_ZNK12ivBackground5printEP9ivPrinterRK12ivAllocation
_ZNK12ivBevelFrame10draw_frameEP8ivCanvasRK12ivAllocationf
_ZNK12ivBevelFrame13allocate_bodyEP7ivGlyphfR12ivAllocation
_ZNK12ivBevelFrame4drawEP8ivCanvasRK12ivAllocation
_ZNK12ivBevelFrame5printEP9ivPrinterRK12ivAllocation
_ZNK12ivBevelFrame7requestER13ivRequisition
_ZNK12ivBevelFrame9thicknessEP8ivCanvas
_ZNK12ivChoiceItem4lookEj
_ZNK12ivFontFamily3repEP9ivDisplay
_ZNK12ivFontFamily4fontEiPKcRS1_Rf
_ZNK12ivFontFamily4fontEiRPKcRf
_ZNK12osCopyString15null_terminatedEv
_ZNK13BoxBackground4drawEP8ivCanvasRK12ivAllocation
_ZNK13BoxBackground5printEP9ivPrinterRK12ivAllocation
_ZNK13BoxBackground9draw_helpEP8ivCanvasRK12ivAllocation
_ZNK13BoxBackground9tic_labelEfffffP8ivCanvas
_ZNK13Discretionary7requestER13ivRequisition
_ZNK13LineExtension4drawEP8ivCanvasRK12ivAllocation
_ZNK13LineExtension7requestER13ivRequisition
_ZNK13MFKitMenuItem4drawEP8ivCanvasRK12ivAllocation
_ZNK13ShapePlotData6varobjEv
_ZNK13ShapePlotData7varnameEv
_ZNK13XYView_helper4drawEP8ivCanvasRK12ivAllocation
_ZNK13XYView_helper5printEP9ivPrinterRK12ivAllocation
_ZNK13XYView_helper7requestER13ivRequisition
_ZNK13ivFieldEditor4textEv
_ZNK13ivFileBrowser10adjustableEv
_ZNK13ivFileChooser3dirEv
_ZNK13ivFileChooser8selectedEv
_ZNK13ivMFDialogKit17make_field_editorERK8osStringP11ivWidgetKitP7ivStyleP19ivFieldEditorAction
_ZNK13ivMFDialogKit17make_file_chooserERK8osStringP11ivWidgetKitP7ivStyleP19ivFileChooserAction
_ZNK13ivRequirement6equalsERKS_f
_ZNK13ivRequisition11requirementEj
_ZNK13ivRequisition6equalsERKS_f
_ZNK13ivTBScrollBox10cur_lengthEj
_ZNK13ivTBScrollBox10last_shownEv
_ZNK13ivTBScrollBox11first_shownEv
_ZNK13ivTBScrollBox4drawEP8ivCanvasRK12ivAllocation
_ZNK13ivTBScrollBox4implEv
_ZNK13ivTBScrollBox5lowerEj
_ZNK13ivTBScrollBox5printEP9ivPrinterRK12ivAllocation
_ZNK13ivTBScrollBox5shownEl
_ZNK13ivTBScrollBox5upperEj
_ZNK13ivTBScrollBox6lengthEj
_ZNK13ivTBScrollBox7requestER13ivRequisition
_ZNK13ivTBScrollBox9allotmentEljR11ivAllotment
_ZNK13ivTBScrollBox9cur_lowerEj
_ZNK13ivTBScrollBox9cur_upperEj
_ZNK13ivTransformer17inverse_transformERfS0_
_ZNK13ivTransformer17inverse_transformEffRfS0_
_ZNK13ivTransformer6matrixERfS0_S0_S0_S0_S0_
_ZNK13ivTransformer9transformERfS0_
_ZNK13ivTransformer9transformEffRfS0_
_ZNK13ivTransformereqERKS_
_ZNK13ivTransformerneERKS_
_ZNK14AxisBackground4drawEP8ivCanvasRK12ivAllocation
_ZNK14AxisBackground5printEP9ivPrinterRK12ivAllocation
_ZNK14AxisBackground9draw_helpEP8ivCanvasRK12ivAllocation
_ZNK14AxisBackground9tic_labelEfffffP8ivCanvas
_ZNK14HocStateButton5printEP9ivPrinterRK12ivAllocation
_ZNK14iv3_TextBuffer10LineNumberEi
_ZNK14iv3_TextBuffer10LineOffsetEi
_ZNK14iv3_TextBuffer11IsEndOfLineEi
_ZNK14iv3_TextBuffer11IsEndOfWordEi
_ZNK14iv3_TextBuffer12LinesBetweenEii
_ZNK14iv3_TextBuffer15BeginningOfLineEi
_ZNK14iv3_TextBuffer15BeginningOfWordEi
_ZNK14iv3_TextBuffer17EndOfPreviousLineEi
_ZNK14iv3_TextBuffer17EndOfPreviousWordEi
_ZNK14iv3_TextBuffer17IsBeginningOfLineEi
_ZNK14iv3_TextBuffer17IsBeginningOfWordEi
_ZNK14iv3_TextBuffer19BeginningOfNextLineEi
_ZNK14iv3_TextBuffer19BeginningOfNextWordEi
_ZNK14iv3_TextBuffer5WidthEv
_ZNK14iv3_TextBuffer6getNthEi
_ZNK14iv3_TextBuffer9EndOfLineEi
_ZNK14iv3_TextBuffer9EndOfWordEi
_ZNK14iv3_TextBuffer9LineIndexEi
_ZNK14iv3_TextRegion5colorEv
_ZNK14iv3_TextRegion5line1Ev
_ZNK14iv3_TextRegion5line2Ev
_ZNK14iv3_TextRegion7column1Ev
_ZNK14iv3_TextRegion7column2Ev
_ZNK14ivInputHandler10allocationEv
_ZNK14ivInputHandler11transformerEv
_ZNK14ivInputHandler13input_handlerEl
_ZNK14ivInputHandler19input_handler_countEv
_ZNK14ivInputHandler4drawEP8ivCanvasRK12ivAllocation
_ZNK14ivInputHandler5styleEv
_ZNK14ivInputHandler6canvasEv
_ZNK14ivInputHandler6parentEv
_ZNK14ivInputHandler6redrawEv
_ZNK14ivInputHandler7handlerEv
_ZNK14osUniqueString15null_terminatedEv
_ZNK14osUniqueString4hashEv
_ZNK14osUniqueStringeqEPKc
_ZNK14osUniqueStringeqERK8osString
_ZNK15MFKitForeground4drawEP8ivCanvasRK12ivAllocation
_ZNK15PrintableWindow11save_bottomEv
_ZNK15PrintableWindow4typeEv
_ZNK15PrintableWindow4xtopEv
_ZNK15PrintableWindow5xleftEv
_ZNK15PrintableWindow7left_pwEv
_ZNK15PrintableWindow8width_pwEv
_ZNK15PrintableWindow9bottom_pwEv
_ZNK15PrintableWindow9height_pwEv
_ZNK15PrintableWindow9save_leftEv
_ZNK15SMFKitCheckmark4drawEP8ivCanvasRK12ivAllocation
_ZNK15SMFKitCheckmark7requestER13ivRequisition
_ZNK15SMFKitIndicator4drawEP8ivCanvasRK12ivAllocation
_ZNK15SMFKitIndicator7requestER13ivRequisition
_ZNK15SMFKitRadioFlag4drawEP8ivCanvasRK12ivAllocation
_ZNK15SMFKitRadioFlag7requestER13ivRequisition
_ZNK15SMFKitRadioItem4drawEP8ivCanvasRK12ivAllocation
_ZNK15ivManagedWindow11icon_bitmapEv
_ZNK15ivManagedWindow4iconEv
_ZNK15ivManagedWindow5widthEv
_ZNK15ivManagedWindow6heightEv
_ZNK15ivManagedWindow9icon_maskEv
_ZNK15ivTelltaleState4testEj
_ZNK16HocStateMenuItem5printEP9ivPrinterRK12ivAllocation
_ZNK16MacPrinterCanvas5widthEv
_ZNK16MacPrinterCanvas6heightEv
_ZNK16MacPrinterCanvas6pwidthEv
_ZNK16MacPrinterCanvas6windowEv
_ZNK16MacPrinterCanvas7pheightEv
_ZNK16MacPrinterCanvas8to_coordEij
_ZNK16MacPrinterCanvas9to_pixelsEfj
_ZNK16OcGlyphContainer7requestER13ivRequisition
_ZNK16TmpObjectDeleterclEP6Object
_ZNK16WidgetKitOverlay4drawEP8ivCanvasRK12ivAllocation
_ZNK16WidgetKitOverlay7requestER13ivRequisition
_ZNK16ivTopLevelWindow12group_leaderEv
_ZNK17DismissableWindow4nameEv
_ZNK17DismissableWindow5glyphEv
_ZNK17SMFKitButtonFrame10draw_frameEP8ivCanvasRK12ivAllocationf
_ZNK17ivAllocationTable11most_recentEv
_ZNK17ivAllocationTable14find_same_sizeEP8ivCanvasRK12ivAllocationRfS5_
_ZNK17ivAllocationTable4findEP8ivCanvasRK12ivAllocation
_ZNK17ivTransformFitter9transformER13ivTransformerRK12ivAllocationS4_
_ZNK17ivTransformSetter11transformerEv
_ZNK17ivTransformSetter14push_transformEP8ivCanvasRK12ivAllocationS4_
_ZNK17ivTransformSetter4drawEP8ivCanvasRK12ivAllocation
_ZNK17ivTransformSetter5printEP9ivPrinterRK12ivAllocation
_ZNK17ivTransformSetter7requestER13ivRequisition
_ZNK17ivTransformSetter9transformER13ivTransformerRK12ivAllocationS4_
_ZNK17ivTransientWindow13transient_forEv
_ZNK18SMFKitDefaultArrow4drawEP8ivCanvasRK12ivAllocation
_ZNK18SMFKitDefaultArrow7requestER13ivRequisition
_ZNK19ColorValueGlyphItem4drawEP8ivCanvasRK12ivAllocation
_ZNK19SMFKitMenuItemFrame10draw_frameEP8ivCanvasRK12ivAllocationf
_ZNK21SMFKitPushButtonFrame7requestER13ivRequisition
_ZNK22osNullTerminatedString15null_terminatedEv
_ZNK4View10view_widthEv
_ZNK4View11view_heightEv
_ZNK4View1xEv
_ZNK4View1yEv
_ZNK4View9transformER13ivTransformerRK12ivAllocationS4_
_ZNK5Graph10ascii_saveERSo
_ZNK5Graph15new_proto_labelEv
_ZNK5Graph4drawEP8ivCanvasRK12ivAllocation
_ZNK5Graph9wholeplotERfS0_S0_S0_
_ZNK5Scene10view_countEv
_ZNK5Scene2x1Ev
_ZNK5Scene2x2Ev
_ZNK5Scene2y1Ev
_ZNK5Scene2y2Ev
_ZNK5Scene3mbsEv
_ZNK5Scene4drawEP8ivCanvasRK12ivAllocation
_ZNK5Scene5countEv
_ZNK5Scene5printEP9ivPrinterRK12ivAllocation
_ZNK5Scene7requestER13ivRequisition
_ZNK5Scene7showingEl
_ZNK5Scene8locationElRfS0_
_ZNK5Scene9allotmentEljR11ivAllotment
_ZNK5Scene9componentEl
_ZNK5Scene9sceneviewEi
_ZNK5Scene9wholeplotERfS0_S0_S0_
_ZNK5Space4drawEP8ivCanvasRK12ivAllocation
_ZNK5Space7requestER13ivRequisition
_ZNK5Strut7requestER13ivRequisition
_ZNK5ivBox4drawEP8ivCanvasRK12ivAllocation
_ZNK5ivBox5printEP9ivPrinterRK12ivAllocation
_ZNK5ivBox7requestER13ivRequisition
_ZNK5ivBox9allotmentEljR11ivAllotment
_ZNK5ivHit3anyEv
_ZNK5ivHit3topEv
_ZNK5ivHit4leftEv
_ZNK5ivHit5countEv
_ZNK5ivHit5depthEl
_ZNK5ivHit5eventEv
_ZNK5ivHit5indexEil
_ZNK5ivHit5rightEv
_ZNK5ivHit6bottomEv
_ZNK5ivHit6targetEil
_ZNK5ivHit7handlerEv
_ZNK6Circle4drawEP8ivCanvasRK12ivAllocation
_ZNK6Circle7requestER13ivRequisition
_ZNK6GLabel4drawEP8ivCanvasRK12ivAllocation
_ZNK6GLabel5cloneEv
_ZNK6GLabel7requestER13ivRequisition
_ZNK6HStrut7requestER13ivRequisition
_ZNK6Hinton4drawEP8ivCanvasRK12ivAllocation
_ZNK6Hinton7requestER13ivRequisition
_ZNK6Hinton9fast_drawEP8ivCanvasffb
_ZNK6VStrut7requestER13ivRequisition
_ZNK6XYView10ratio_viewEffRfS0_
_ZNK6XYView10scene2viewERK12ivAllocation
_ZNK6XYView10view_ratioEffRfS0_
_ZNK6XYView11damage_areaERfS0_S0_S0_
_ZNK6XYView3topEv
_ZNK6XYView3zinERfS0_S0_S0_
_ZNK6XYView4leftEv
_ZNK6XYView4zoutERfS0_S0_S0_
_ZNK6XYView5csizeEffff
_ZNK6XYView5rightEv
_ZNK6XYView5sceneEv
_ZNK6XYView5widthEv
_ZNK6XYView6bottomEv
_ZNK6XYView6heightEv
_ZNK6XYView7requestER13ivRequisition
_ZNK6XYView9transformER13ivTransformerRK12ivAllocationS4_
_ZNK6ivDeck4cardEv
_ZNK6ivDeck4drawEP8ivCanvasRK12ivAllocation
_ZNK6ivDeck5printEP9ivPrinterRK12ivAllocation
_ZNK6ivDeck7requestER13ivRequisition
_ZNK6ivDeck9allotmentEljR11ivAllotment
_ZNK6ivFont11string_bboxEPKciR17ivFontBoundingBox
_ZNK6ivFont3repEP9ivDisplay
_ZNK6ivFont4nameEv
_ZNK6ivFont4sizeEv
_ZNK6ivFont5indexEPKcifb
_ZNK6ivFont5widthEPKci
_ZNK6ivFont5widthEl
_ZNK6ivFont8encodingEv
_ZNK6ivFont9char_bboxElR17ivFontBoundingBox
_ZNK6ivFont9font_bboxER17ivFontBoundingBox
_ZNK6ivGlue7requestER13ivRequisition
_ZNK6ivLine4drawEP8ivCanvasRK12ivAllocation
_ZNK6ivLine7requestER13ivRequisition
_ZNK6ivMenu10item_countEv
_ZNK6ivMenu4itemEl
_ZNK6ivMenu8selectedEv
_ZNK6osFile3repEv
_ZNK6osFile4nameEv
_ZNK6osFile6lengthEv
_ZNK7DataVec3maxEv
_ZNK7DataVec3minEv
_ZNK7DataVec7loc_maxEv
_ZNK7DataVec7loc_minEv
_ZNK7DataVec8new_vectEP6GLabel
_ZNK7GrGlyph4drawEP8ivCanvasRK12ivAllocation
_ZNK7GrGlyph7requestER13ivRequisition
_ZNK7HocMark4drawEP8ivCanvasRK12ivAllocation
_ZNK7HocMark7requestER13ivRequisition
_ZNK7OcGlyph8def_sizeERfS0_
_ZNK7PWMImpl13none_selectedEPKcS1_
_ZNK7ShapeOf7requestER13ivRequisition
_ZNK7UpArrow4drawEP8ivCanvasRK12ivAllocation
_ZNK7ivBevel10draw_frameEP8ivCanvasRK12ivAllocationf
_ZNK7ivBrush10dash_countEv
_ZNK7ivBrush3repEP9ivDisplay
_ZNK7ivBrush5widthEv
_ZNK7ivBrush9dash_listEi
_ZNK7ivColor10brightnessEf
_ZNK7ivColor11intensitiesEP9ivDisplayRfS2_S2_
_ZNK7ivColor11intensitiesERfS0_S0_
_ZNK7ivColor13distinguishedEP9ivDisplayPKS_
_ZNK7ivColor13distinguishedEPKS_
_ZNK7ivColor5alphaEv
_ZNK7ivEvent11is_grabbingEP9ivHandler
_ZNK7ivEvent12left_is_downEv
_ZNK7ivEvent12meta_is_downEv
_ZNK7ivEvent13right_is_downEv
_ZNK7ivEvent13shift_is_downEv
_ZNK7ivEvent14middle_is_downEv
_ZNK7ivEvent14pointer_buttonEv
_ZNK7ivEvent14pointer_root_xEv
_ZNK7ivEvent14pointer_root_yEv
_ZNK7ivEvent15control_is_downEv
_ZNK7ivEvent16capslock_is_downEv
_ZNK7ivEvent4grabEP9ivHandler
_ZNK7ivEvent4timeEv
_ZNK7ivEvent4typeEv
_ZNK7ivEvent6keysymEv
_ZNK7ivEvent6mapkeyEPcj
_ZNK7ivEvent6ungrabEP9ivHandler
_ZNK7ivEvent6windowEv
_ZNK7ivEvent7displayEv
_ZNK7ivEvent7grabberEv
_ZNK7ivEvent7handlerEv
_ZNK7ivEvent7keycodeEv
_ZNK7ivEvent7keymaskEv
_ZNK7ivEvent7pendingEv
_ZNK7ivEvent9pointer_xEv
_ZNK7ivEvent9pointer_yEv
_ZNK7ivGlyph4drawEP8ivCanvasRK12ivAllocation
_ZNK7ivGlyph5cloneEv
_ZNK7ivGlyph5countEv
_ZNK7ivGlyph5printEP9ivPrinterRK12ivAllocation
_ZNK7ivGlyph7requestER13ivRequisition
_ZNK7ivGlyph9allotmentEljR11ivAllotment
_ZNK7ivGlyph9componentEl
_ZNK7ivImage4drawEP8ivCanvasRK12ivAllocation
_ZNK7ivImage7requestER13ivRequisition
_ZNK7ivLabel4drawEP8ivCanvasRK12ivAllocation
_ZNK7ivLabel7requestER13ivRequisition
_ZNK7ivMFKit11inset_frameEP7ivGlyph
_ZNK7ivMFKit11panner_lookEP12ivAdjustableS1_
_ZNK7ivMFKit11slider_lookEjP12ivAdjustable
_ZNK7ivMFKit12menubar_lookEv
_ZNK7ivMFKit12outset_frameEP7ivGlyph
_ZNK7ivMFKit12reducer_lookEP15ivTelltaleState
_ZNK7ivMFKit13enlarger_lookEP15ivTelltaleState
_ZNK7ivMFKit13pulldown_lookEv
_ZNK7ivMFKit13up_mover_lookEP15ivTelltaleState
_ZNK7ivMFKit14check_box_lookEP7ivGlyphP15ivTelltaleState
_ZNK7ivMFKit14menu_item_lookEP7ivGlyphP15ivTelltaleState
_ZNK7ivMFKit15down_mover_lookEP15ivTelltaleState
_ZNK7ivMFKit15left_mover_lookEP15ivTelltaleState
_ZNK7ivMFKit15scroll_bar_lookEjP12ivAdjustable
_ZNK7ivMFKit16push_button_lookEP7ivGlyphP15ivTelltaleState
_ZNK7ivMFKit16right_mover_lookEP15ivTelltaleState
_ZNK7ivMFKit17menubar_item_lookEP7ivGlyphP15ivTelltaleState
_ZNK7ivMFKit17radio_button_lookEP7ivGlyphP15ivTelltaleState
_ZNK7ivMFKit18bright_inset_frameEP7ivGlyph
_ZNK7ivMFKit19default_button_lookEP7ivGlyphP15ivTelltaleState
_ZNK7ivMFKit19palette_button_lookEP7ivGlyphP15ivTelltaleState
_ZNK7ivMFKit20check_menu_item_lookEP7ivGlyphP15ivTelltaleState
_ZNK7ivMFKit20radio_menu_item_lookEP7ivGlyphP15ivTelltaleState
_ZNK7ivMFKit24menu_item_separator_lookEv
_ZNK7ivMFKit3guiEv
_ZNK7ivMacro5countEv
_ZNK7ivMacro6actionEl
_ZNK7ivPatch4drawEP8ivCanvasRK12ivAllocation
_ZNK7ivPatch6redrawEv
_ZNK7ivStyle11alias_countEv
_ZNK7ivStyle11value_is_onEPKc
_ZNK7ivStyle11value_is_onERK8osString
_ZNK7ivStyle14find_attributeEPKcR8osString
_ZNK7ivStyle14find_attributeEPKcRd
_ZNK7ivStyle14find_attributeEPKcRf
_ZNK7ivStyle14find_attributeEPKcRl
_ZNK7ivStyle14find_attributeERK8osStringRS0_
_ZNK7ivStyle14find_attributeERK8osStringRd
_ZNK7ivStyle14find_attributeERK8osStringRf
_ZNK7ivStyle14find_attributeERK8osStringRl
_ZNK7ivStyle15attribute_countEv
_ZNK7ivStyle4nameEv
_ZNK7ivStyle5aliasEl
_ZNK7ivStyle5childEl
_ZNK7ivStyle6parentEv
_ZNK7ivStyle8childrenEv
_ZNK7ivStyle9attributeElR8osStringS1_
_ZNK8MWcanvas10any_damageEv
_ZNK8MWcanvas11transformerEv
_ZNK8MWcanvas5widthEv
_ZNK8MWcanvas6heightEv
_ZNK8MWcanvas6matrixEv
_ZNK8MWcanvas6pwidthEv
_ZNK8MWcanvas6windowEv
_ZNK8MWcanvas7damagedERK11ivExtension
_ZNK8MWcanvas7damagedEffff
_ZNK8MWcanvas7pheightEv
_ZNK8MWcanvas8to_coordEij
_ZNK8MWcanvas9to_pixelsEfj
_ZNK8Triangle4drawEP8ivCanvasRK12ivAllocation
_ZNK8Triangle7requestER13ivRequisition
_ZNK8WorkItem14todo_less_thanEPKS_
_ZNK8iv3_Text10cur_lengthEj
_ZNK8iv3_Text10drawRegionERK14iv3_TextRegionjffRK8osString
_ZNK8iv3_Text11columnCoordERK8osStringj
_ZNK8iv3_Text12drawLocationERK16iv3_TextLocationjffRK8osString
_ZNK8iv3_Text4drawEP8ivCanvasRK12ivAllocation
_ZNK8iv3_Text4fontEv
_ZNK8iv3_Text4snapERK7ivEventRjS3_
_ZNK8iv3_Text5lowerEj
_ZNK8iv3_Text5upperEj
_ZNK8iv3_Text5widthERK8osString
_ZNK8iv3_Text5widthEv
_ZNK8iv3_Text6bufferEv
_ZNK8iv3_Text6heightEv
_ZNK8iv3_Text6lengthEj
_ZNK8iv3_Text7damagedEj
_ZNK8iv3_Text7requestER13ivRequisition
_ZNK8iv3_Text8drawLineEjffRK8osString
_ZNK8iv3_Text8readOnlyEv
_ZNK8iv3_Text9cur_lowerEj
_ZNK8iv3_Text9cur_upperEj
_ZNK8ivBitmap12left_bearingEv
_ZNK8ivBitmap13right_bearingEv
_ZNK8ivBitmap4peekEii
_ZNK8ivBitmap5flushEv
_ZNK8ivBitmap5widthEv
_ZNK8ivBitmap6ascentEv
_ZNK8ivBitmap6heightEv
_ZNK8ivBitmap6pwidthEv
_ZNK8ivBitmap7descentEv
_ZNK8ivBitmap7pheightEv
_ZNK8ivBorder4drawEP8ivCanvasRK12ivAllocation
_ZNK8ivBorder5printEP9ivPrinterRK12ivAllocation
_ZNK8ivButton5stateEv
_ZNK8ivButton6actionEv
_ZNK8ivCanvas15to_pixels_coordEfj
_ZNK8ivCanvas6windowEv
_ZNK8ivRaster12left_bearingEv
_ZNK8ivRaster13right_bearingEv
_ZNK8ivRaster4peekEmmRfS0_S0_S0_
_ZNK8ivRaster5flushEv
_ZNK8ivRaster5widthEv
_ZNK8ivRaster6ascentEv
_ZNK8ivRaster6heightEv
_ZNK8ivRaster6pwidthEv
_ZNK8ivRaster7descentEv
_ZNK8ivRaster7pheightEv
_ZNK8ivRegexp7patternEv
_ZNK8ivSMFKit11inset_frameEP7ivGlyph
_ZNK8ivSMFKit11panner_lookEP12ivAdjustableS1_
_ZNK8ivSMFKit11slider_lookEjP12ivAdjustable
_ZNK8ivSMFKit12menubar_lookEv
_ZNK8ivSMFKit12outset_frameEP7ivGlyph
_ZNK8ivSMFKit12reducer_lookEP15ivTelltaleState
_ZNK8ivSMFKit13enlarger_lookEP15ivTelltaleState
_ZNK8ivSMFKit13pulldown_lookEv
_ZNK8ivSMFKit13up_mover_lookEP15ivTelltaleState
_ZNK8ivSMFKit14check_box_lookEP7ivGlyphP15ivTelltaleState
_ZNK8ivSMFKit14menu_item_lookEP7ivGlyphP15ivTelltaleState
_ZNK8ivSMFKit14pullright_lookEv
_ZNK8ivSMFKit15down_mover_lookEP15ivTelltaleState
_ZNK8ivSMFKit15left_mover_lookEP15ivTelltaleState
_ZNK8ivSMFKit15scroll_bar_lookEjP12ivAdjustable
_ZNK8ivSMFKit16push_button_lookEP7ivGlyphP15ivTelltaleState
_ZNK8ivSMFKit16right_mover_lookEP15ivTelltaleState
_ZNK8ivSMFKit17menubar_item_lookEP7ivGlyphP15ivTelltaleState
_ZNK8ivSMFKit17radio_button_lookEP7ivGlyphP15ivTelltaleState
_ZNK8ivSMFKit18bright_inset_frameEP7ivGlyph
_ZNK8ivSMFKit19default_button_lookEP7ivGlyphP15ivTelltaleState
_ZNK8ivSMFKit19palette_button_lookEP7ivGlyphP15ivTelltaleState
_ZNK8ivSMFKit20check_menu_item_lookEP7ivGlyphP15ivTelltaleState
_ZNK8ivSMFKit20radio_menu_item_lookEP7ivGlyphP15ivTelltaleState
_ZNK8ivSMFKit24menu_item_separator_lookEv
_ZNK8ivSMFKit3guiEv
_ZNK8ivSlider18minimum_thumb_sizeEv
_ZNK8ivSlider4drawEP8ivCanvasRK12ivAllocation
_ZNK8ivSlider7requestER13ivRequisition
_ZNK8ivWindow12grab_pointerEP8ivCursor
_ZNK8ivWindow14ungrab_pointerEv
_ZNK8ivWindow4leftEv
_ZNK8ivWindow5boundEv
_ZNK8ivWindow5glyphEv
_ZNK8ivWindow5styleEv
_ZNK8ivWindow5widthEv
_ZNK8ivWindow6bottomEv
_ZNK8ivWindow6canvasEv
_ZNK8ivWindow6cursorEv
_ZNK8ivWindow6heightEv
_ZNK8ivWindow6targetERK7ivEvent
_ZNK8ivWindow7displayEv
_ZNK8ivWindow9is_mappedEv
_ZNK8nrn_Rect4drawEP8ivCanvasRK12ivAllocation
_ZNK8nrn_Rect7requestER13ivRequisition
_ZNK8osString15null_terminatedEv
_ZNK8osString22case_insensitive_equalEPKc
_ZNK8osString22case_insensitive_equalERKS_
_ZNK8osString4hashEv
_ZNK8osString6searchEih
_ZNK8osString6substrEii
_ZNK8osString7convertERd
_ZNK8osString7convertERf
_ZNK8osString7convertERi
_ZNK8osString7convertERl
_ZNK8osStringeqEPKc
_ZNK8osStringeqERKS_
_ZNK8osStringgeEPKc
_ZNK8osStringgeERKS_
_ZNK8osStringgtEPKc
_ZNK8osStringgtERKS_
_ZNK8osStringleEPKc
_ZNK8osStringleERKS_
_ZNK8osStringltEPKc
_ZNK8osStringltERKS_
_ZNK8osStringneEPKc
_ZNK8osStringneERKS_
_ZNK9DownArrow4drawEP8ivCanvasRK12ivAllocation
_ZNK9GPolyLine13draw_specificEP8ivCanvasRK12ivAllocationii
_ZNK9GPolyLine4drawEP8ivCanvasRK12ivAllocation
_ZNK9GPolyLine4nearEfffRK13ivTransformer
_ZNK9GPolyLine5printEP9ivPrinterRK12ivAllocation
_ZNK9GPolyLine7nearestEffRK13ivTransformeri
_ZNK9GPolyLine7requestER13ivRequisition
_ZNK9GPolyLine9label_locERfS0_
_ZNK9GraphLine4nameEv
_ZNK9HocAction4nameEv
_ZNK9HocButton5printEP9ivPrinterRK12ivAllocation
_ZNK9LeftArrow4drawEP8ivCanvasRK12ivAllocation
_ZNK9Memb_func17invoke_initializeEP9NrnThreadP9Memb_listi
_ZNK9NrnUpDown4drawEP8ivCanvasRK12ivAllocation
_ZNK9NrnUpDown7requestER13ivRequisition
_ZNK9PaperItem4drawEP8ivCanvasRK12ivAllocation
_ZNK9PaperItem7requestER13ivRequisition
_ZNK9PointMark4drawEP8ivCanvasRK12ivAllocation
_ZNK9Rectangle4drawEP8ivCanvasRK12ivAllocation
_ZNK9Rectangle7requestER13ivRequisition
_ZNK9ShapePlot4drawEP8ivCanvasRK12ivAllocation
_ZNK9ShapePlot6varobjEv
_ZNK9ShapePlot7varnameEv
_ZNK9ivBrowser5stateEl
_ZNK9ivBrowser6chooseEl
_ZNK9ivBrowser8selectedEv
_ZNK9ivDisplay11is_grabbingEP9ivHandler
_ZNK9ivDisplay2fdEv
_ZNK9ivDisplay5styleEv
_ZNK9ivDisplay5widthEv
_ZNK9ivDisplay6heightEv
_ZNK9ivDisplay6pwidthEv
_ZNK9ivDisplay7a_widthEv
_ZNK9ivDisplay7grabberEv
_ZNK9ivDisplay7pheightEv
_ZNK9ivDisplay8a_heightEv
_ZNK9ivDisplay8defaultsER8osString
_ZNK9ivPrinter10any_damageEv
_ZNK9ivPrinter11transformerEv
_ZNK9ivPrinter15to_pixels_coordEfj
_ZNK9ivPrinter5widthEv
_ZNK9ivPrinter6heightEv
_ZNK9ivPrinter6pwidthEv
_ZNK9ivPrinter7damagedERK11ivExtension
_ZNK9ivPrinter7damagedEffff
_ZNK9ivPrinter7pheightEv
_ZNK9ivPrinter8to_coordEij
_ZNK9ivPrinter9to_pixelsEfj
_ZNK9ivSession15default_displayEv
_ZNK9ivSession4argcEv
_ZNK9ivSession4argvEv
_ZNK9ivSession4doneEv
_ZNK9ivSession4nameEv
_ZNK9ivSession5styleEv
_ZNK9ivSession7pendingEv
_ZNK9ivSession9classnameEv
_ZNK9ivStencil4drawEP8ivCanvasRK12ivAllocation
_ZNK9ivStencil7requestER13ivRequisition
_ZNKSt10_HashtableINSt7__cxx1112basic_stringIcSt11char_traitsIcESaIcEEES5_SaIS5_ENSt8__detail9_IdentityESt8equal_toIS5_ESt4hashIS5_ENS7_18_Mod_range_hashingENS7_20_Default_ranged_hashENS7_20_Prime_rehash_policyENS7_17_Hashtable_traitsILb1ELb1ELb1EEEE19_M_find_before_nodeEyRKS5_y
_ZNKSt10_HashtableINSt7__cxx1112basic_stringIcSt11char_traitsIcESaIcEEESt4pairIKS5_P7SectionESaISA_ENSt8__detail10_Select1stESt8equal_toIS5_ESt4hashIS5_ENSC_18_Mod_range_hashingENSC_20_Default_ranged_hashENSC_20_Prime_rehash_policyENSC_17_Hashtable_traitsILb1ELb0ELb1EEEE19_M_find_before_nodeEyRS7_y
_ZNKSt10_HashtableIiiSaIiENSt8__detail9_IdentityESt8equal_toIiESt4hashIiENS1_18_Mod_range_hashingENS1_20_Default_ranged_hashENS1_20_Prime_rehash_policyENS1_17_Hashtable_traitsILb0ELb1ELb1EEEE4findERKi
_ZNKSt19bad_optional_access4whatEv
_ZNKSt23__codecvt_abstract_baseIwciE2inERiPKcS3_RS3_PwS5_RS5_
_ZNKSt23__codecvt_abstract_baseIwciE3outERiPKwS3_RS3_PcS5_RS5_
_ZNKSt5ctypeIcE8do_widenEc
_ZNSt10_HashtableINSt7__cxx1112basic_stringIcSt11char_traitsIcESaIcEEES5_SaIS5_ENSt8__detail9_IdentityESt8equal_toIS5_ESt4hashIS5_ENS7_18_Mod_range_hashingENS7_20_Default_ranged_hashENS7_20_Prime_rehash_policyENS7_17_Hashtable_traitsILb1ELb1ELb1EEEE5clearEv
_ZNSt10_HashtableINSt7__cxx1112basic_stringIcSt11char_traitsIcESaIcEEES5_SaIS5_ENSt8__detail9_IdentityESt8equal_toIS5_ESt4hashIS5_ENS7_18_Mod_range_hashingENS7_20_Default_ranged_hashENS7_20_Prime_rehash_policyENS7_17_Hashtable_traitsILb1ELb1ELb1EEEE9_M_rehashEyRKy
_ZNSt10_HashtableINSt7__cxx1112basic_stringIcSt11char_traitsIcESaIcEEESt4pairIKS5_P7SectionESaISA_ENSt8__detail10_Select1stESt8equal_toIS5_ESt4hashIS5_ENSC_18_Mod_range_hashingENSC_20_Default_ranged_hashENSC_20_Prime_rehash_policyENSC_17_Hashtable_traitsILb1ELb0ELb1EEEE4findERS7_
_ZNSt10_HashtableINSt7__cxx1112basic_stringIcSt11char_traitsIcESaIcEEESt4pairIKS5_P7SectionESaISA_ENSt8__detail10_Select1stESt8equal_toIS5_ESt4hashIS5_ENSC_18_Mod_range_hashingENSC_20_Default_ranged_hashENSC_20_Prime_rehash_policyENSC_17_Hashtable_traitsILb1ELb0ELb1EEEE9_M_rehashEyRKy
_ZNSt10_HashtableIP13Point_processSt4pairIKS1_P6DEListESaIS6_ENSt8__detail10_Select1stESt8equal_toIS1_ESt4hashIS1_ENS8_18_Mod_range_hashingENS8_20_Default_ranged_hashENS8_20_Prime_rehash_policyENS8_17_Hashtable_traitsILb0ELb0ELb1EEEE4findERS3_
_ZNSt10_HashtableIP13Point_processSt4pairIKS1_P6DEListESaIS6_ENSt8__detail10_Select1stESt8equal_toIS1_ESt4hashIS1_ENS8_18_Mod_range_hashingENS8_20_Default_ranged_hashENS8_20_Prime_rehash_policyENS8_17_Hashtable_traitsILb0ELb0ELb1EEEE9_M_rehashEyRKy
_ZNSt10_HashtableIP13Point_processSt4pairIKS1_iESaIS4_ENSt8__detail10_Select1stESt8equal_toIS1_ESt4hashIS1_ENS6_18_Mod_range_hashingENS6_20_Default_ranged_hashENS6_20_Prime_rehash_policyENS6_17_Hashtable_traitsILb0ELb0ELb1EEEE9_M_rehashEyRKy
_ZNSt10_HashtableIP4NodeSt4pairIKS1_P10MultiSplitESaIS6_ENSt8__detail10_Select1stESt8equal_toIS1_ESt4hashIS1_ENS8_18_Mod_range_hashingENS8_20_Default_ranged_hashENS8_20_Prime_rehash_policyENS8_17_Hashtable_traitsILb0ELb0ELb1EEEE4findERS3_
_ZNSt10_HashtableIP4NodeSt4pairIKS1_P10MultiSplitESaIS6_ENSt8__detail10_Select1stESt8equal_toIS1_ESt4hashIS1_ENS8_18_Mod_range_hashingENS8_20_Default_ranged_hashENS8_20_Prime_rehash_policyENS8_17_Hashtable_traitsILb0ELb0ELb1EEEE9_M_rehashEyRKy
_ZNSt10_HashtableIP4NodeSt4pairIKS1_PdESaIS5_ENSt8__detail10_Select1stESt8equal_toIS1_ESt4hashIS1_ENS7_18_Mod_range_hashingENS7_20_Default_ranged_hashENS7_20_Prime_rehash_policyENS7_17_Hashtable_traitsILb0ELb0ELb1EEEE4findERS3_
_ZNSt10_HashtableIP6NetConSt4pairIKS1_PSt6vectorIdSaIdEEESaIS8_ENSt8__detail10_Select1stESt8equal_toIS1_ESt4hashIS1_ENSA_18_Mod_range_hashingENSA_20_Default_ranged_hashENSA_20_Prime_rehash_policyENSA_17_Hashtable_traitsILb0ELb0ELb1EEEE4findERS3_
_ZNSt10_HashtableIP6NetConSt4pairIKS1_PSt6vectorIdSaIdEEESaIS8_ENSt8__detail10_Select1stESt8equal_toIS1_ESt4hashIS1_ENSA_18_Mod_range_hashingENSA_20_Default_ranged_hashENSA_20_Prime_rehash_policyENSA_17_Hashtable_traitsILb0ELb0ELb1EEEE9_M_rehashEyRKy
_ZNSt10_HashtableIP6NetConSt4pairIKS1_St6vectorIySaIyEEESaIS7_ENSt8__detail10_Select1stESt8equal_toIS1_ESt4hashIS1_ENS9_18_Mod_range_hashingENS9_20_Default_ranged_hashENS9_20_Prime_rehash_policyENS9_17_Hashtable_traitsILb0ELb0ELb1EEEE5clearEv
_ZNSt10_HashtableIP6NetConSt4pairIKS1_St6vectorIySaIyEEESaIS7_ENSt8__detail10_Select1stESt8equal_toIS1_ESt4hashIS1_ENS9_18_Mod_range_hashingENS9_20_Default_ranged_hashENS9_20_Prime_rehash_policyENS9_17_Hashtable_traitsILb0ELb0ELb1EEEE9_M_rehashEyRKy
_ZNSt10_HashtableIP6PreSynSt4pairIKS1_St6vectorIySaIyEEESaIS7_ENSt8__detail10_Select1stESt8equal_toIS1_ESt4hashIS1_ENS9_18_Mod_range_hashingENS9_20_Default_ranged_hashENS9_20_Prime_rehash_policyENS9_17_Hashtable_traitsILb0ELb0ELb1EEEE5clearEv
_ZNSt10_HashtableIP6PreSynSt4pairIKS1_St6vectorIySaIyEEESaIS7_ENSt8__detail10_Select1stESt8equal_toIS1_ESt4hashIS1_ENS9_18_Mod_range_hashingENS9_20_Default_ranged_hashENS9_20_Prime_rehash_policyENS9_17_Hashtable_traitsILb0ELb0ELb1EEEE9_M_rehashEyRKy
_ZNSt10_HashtableIPdSt4pairIKS0_P6PreSynESaIS5_ENSt8__detail10_Select1stESt8equal_toIS0_ESt4hashIS0_ENS7_18_Mod_range_hashingENS7_20_Default_ranged_hashENS7_20_Prime_rehash_policyENS7_17_Hashtable_traitsILb0ELb0ELb1EEEE9_M_rehashEyRKy
_ZNSt10_HashtableIPdSt4pairIKS0_St6vectorIySaIyEEESaIS6_ENSt8__detail10_Select1stESt8equal_toIS0_ESt4hashIS0_ENS8_18_Mod_range_hashingENS8_20_Default_ranged_hashENS8_20_Prime_rehash_policyENS8_17_Hashtable_traitsILb0ELb0ELb1EEEE5clearEv
_ZNSt10_HashtableIPdSt4pairIKS0_St6vectorIySaIyEEESaIS6_ENSt8__detail10_Select1stESt8equal_toIS0_ESt4hashIS0_ENS8_18_Mod_range_hashingENS8_20_Default_ranged_hashENS8_20_Prime_rehash_policyENS8_17_Hashtable_traitsILb0ELb0ELb1EEEE9_M_rehashEyRKy
_ZNSt10_HashtableIPvSt4pairIKS0_P12MaxStateItemESaIS5_ENSt8__detail10_Select1stESt8equal_toIS0_ESt4hashIS0_ENS7_18_Mod_range_hashingENS7_20_Default_ranged_hashENS7_20_Prime_rehash_policyENS7_17_Hashtable_traitsILb0ELb0ELb1EEEE4findERS2_
_ZNSt10_HashtableIPvSt4pairIKS0_P12MaxStateItemESaIS5_ENSt8__detail10_Select1stESt8equal_toIS0_ESt4hashIS0_ENS7_18_Mod_range_hashingENS7_20_Default_ranged_hashENS7_20_Prime_rehash_policyENS7_17_Hashtable_traitsILb0ELb0ELb1EEEE9_M_rehashEyRKy
_ZNSt10_HashtableIPvSt4pairIKS0_P6NetConESaIS5_ENSt8__detail10_Select1stESt8equal_toIS0_ESt4hashIS0_ENS7_18_Mod_range_hashingENS7_20_Default_ranged_hashENS7_20_Prime_rehash_policyENS7_17_Hashtable_traitsILb0ELb0ELb1EEEE9_M_rehashEyRKy
_ZNSt10_HashtableIPvSt4pairIKS0_St13unordered_mapINSt7__cxx1112basic_stringIcSt11char_traitsIcESaIcEEEP7SectionSt4hashIS9_ESt8equal_toIS9_ESaIS1_IKS9_SB_EEEESaISK_ENSt8__detail10_Select1stESE_IS0_ESC_IS0_ENSM_18_Mod_range_hashingENSM_20_Default_ranged_hashENSM_20_Prime_rehash_policyENSM_17_Hashtable_traitsILb0ELb0ELb1EEEE12_Scoped_nodeD1Ev
_ZNSt10_HashtableIPvSt4pairIKS0_St13unordered_mapINSt7__cxx1112basic_stringIcSt11char_traitsIcESaIcEEEP7SectionSt4hashIS9_ESt8equal_toIS9_ESaIS1_IKS9_SB_EEEESaISK_ENSt8__detail10_Select1stESE_IS0_ESC_IS0_ENSM_18_Mod_range_hashingENSM_20_Default_ranged_hashENSM_20_Prime_rehash_policyENSM_17_Hashtable_traitsILb0ELb0ELb1EEEE5clearEv
_ZNSt10_HashtableIiSt4pairIKiP6PreSynESaIS4_ENSt8__detail10_Select1stESt8equal_toIiESt4hashIiENS6_18_Mod_range_hashingENS6_20_Default_ranged_hashENS6_20_Prime_rehash_policyENS6_17_Hashtable_traitsILb0ELb0ELb1EEEE4findERS1_
_ZNSt10_HashtableIiSt4pairIKiP6PreSynESaIS4_ENSt8__detail10_Select1stESt8equal_toIiESt4hashIiENS6_18_Mod_range_hashingENS6_20_Default_ranged_hashENS6_20_Prime_rehash_policyENS6_17_Hashtable_traitsILb0ELb0ELb1EEEE9_M_rehashEyRKy
_ZNSt10_HashtableIiSt4pairIKiPSt6vectorIdSaIdEEESaIS6_ENSt8__detail10_Select1stESt8equal_toIiESt4hashIiENS8_18_Mod_range_hashingENS8_20_Default_ranged_hashENS8_20_Prime_rehash_policyENS8_17_Hashtable_traitsILb0ELb0ELb1EEEE4findERS1_
_ZNSt10_HashtableIiSt4pairIKiPSt6vectorIdSaIdEEESaIS6_ENSt8__detail10_Select1stESt8equal_toIiESt4hashIiENS8_18_Mod_range_hashingENS8_20_Default_ranged_hashENS8_20_Prime_rehash_policyENS8_17_Hashtable_traitsILb0ELb0ELb1EEEE9_M_rehashEyRKy
_ZNSt10_HashtableIiSt4pairIKiSt10unique_ptrI7TarListSt14default_deleteIS3_EEESaIS7_ENSt8__detail10_Select1stESt8equal_toIiESt4hashIiENS9_18_Mod_range_hashingENS9_20_Default_ranged_hashENS9_20_Prime_rehash_policyENS9_17_Hashtable_traitsILb0ELb0ELb1EEEE12_Scoped_nodeD1Ev
_ZNSt10_HashtableIiSt4pairIKiSt10unique_ptrI7TarListSt14default_deleteIS3_EEESaIS7_ENSt8__detail10_Select1stESt8equal_toIiESt4hashIiENS9_18_Mod_range_hashingENS9_20_Default_ranged_hashENS9_20_Prime_rehash_policyENS9_17_Hashtable_traitsILb0ELb0ELb1EEEE4findERS1_
_ZNSt10_HashtableIiSt4pairIKiSt10unique_ptrI7TarListSt14default_deleteIS3_EEESaIS7_ENSt8__detail10_Select1stESt8equal_toIiESt4hashIiENS9_18_Mod_range_hashingENS9_20_Default_ranged_hashENS9_20_Prime_rehash_policyENS9_17_Hashtable_traitsILb0ELb0ELb1EEEE5clearEv
_ZNSt10_HashtableIiSt4pairIKiSt10unique_ptrI7TarListSt14default_deleteIS3_EEESaIS7_ENSt8__detail10_Select1stESt8equal_toIiESt4hashIiENS9_18_Mod_range_hashingENS9_20_Default_ranged_hashENS9_20_Prime_rehash_policyENS9_17_Hashtable_traitsILb0ELb0ELb1EEEE9_M_rehashEyRKy
_ZNSt10_HashtableIiSt4pairIKiiESaIS2_ENSt8__detail10_Select1stESt8equal_toIiESt4hashIiENS4_18_Mod_range_hashingENS4_20_Default_ranged_hashENS4_20_Prime_rehash_policyENS4_17_Hashtable_traitsILb0ELb0ELb1EEEE12_Scoped_nodeD1Ev
_ZNSt10_HashtableIiSt4pairIKiiESaIS2_ENSt8__detail10_Select1stESt8equal_toIiESt4hashIiENS4_18_Mod_range_hashingENS4_20_Default_ranged_hashENS4_20_Prime_rehash_policyENS4_17_Hashtable_traitsILb0ELb0ELb1EEEE21_M_deallocate_bucketsEv
_ZNSt10_HashtableIiSt4pairIKiiESaIS2_ENSt8__detail10_Select1stESt8equal_toIiESt4hashIiENS4_18_Mod_range_hashingENS4_20_Default_ranged_hashENS4_20_Prime_rehash_policyENS4_17_Hashtable_traitsILb0ELb0ELb1EEEE21_M_insert_unique_nodeEyyPNS4_10_Hash_nodeIS2_Lb0EEEy
_ZNSt10_HashtableIiSt4pairIKiiESaIS2_ENSt8__detail10_Select1stESt8equal_toIiESt4hashIiENS4_18_Mod_range_hashingENS4_20_Default_ranged_hashENS4_20_Prime_rehash_policyENS4_17_Hashtable_traitsILb0ELb0ELb1EEEE4findERS1_
_ZNSt10_HashtableIiSt4pairIKiiESaIS2_ENSt8__detail10_Select1stESt8equal_toIiESt4hashIiENS4_18_Mod_range_hashingENS4_20_Default_ranged_hashENS4_20_Prime_rehash_policyENS4_17_Hashtable_traitsILb0ELb0ELb1EEEE5clearEv
_ZNSt10_HashtableIiSt4pairIKiiESaIS2_ENSt8__detail10_Select1stESt8equal_toIiESt4hashIiENS4_18_Mod_range_hashingENS4_20_Default_ranged_hashENS4_20_Prime_rehash_policyENS4_17_Hashtable_traitsILb0ELb0ELb1EEEE9_M_rehashEyRKy
_ZNSt10_HashtableIiiSaIiENSt8__detail9_IdentityESt8equal_toIiESt4hashIiENS1_18_Mod_range_hashingENS1_20_Default_ranged_hashENS1_20_Prime_rehash_policyENS1_17_Hashtable_traitsILb0ELb1ELb1EEEE9_M_rehashEyRKy
_ZNSt10_HashtableIlSt4pairIKlP13Point_processESaIS4_ENSt8__detail10_Select1stESt8equal_toIlESt4hashIlENS6_18_Mod_range_hashingENS6_20_Default_ranged_hashENS6_20_Prime_rehash_policyENS6_17_Hashtable_traitsILb0ELb0ELb1EEEE9_M_rehashEyRKy
_ZNSt10_HashtableIlSt4pairIKlP6NetConESaIS4_ENSt8__detail10_Select1stESt8equal_toIlESt4hashIlENS6_18_Mod_range_hashingENS6_20_Default_ranged_hashENS6_20_Prime_rehash_policyENS6_17_Hashtable_traitsILb0ELb0ELb1EEEE9_M_rehashEyRKy
_ZNSt10_HashtableIlSt4pairIKlP6PreSynESaIS4_ENSt8__detail10_Select1stESt8equal_toIlESt4hashIlENS6_18_Mod_range_hashingENS6_20_Default_ranged_hashENS6_20_Prime_rehash_policyENS6_17_Hashtable_traitsILb0ELb0ELb1EEEE9_M_rehashEyRKy
_ZNSt10filesystem7__cxx114path10_S_convertIcEEDaPKT_S5_
_ZNSt10filesystem7__cxx118__detail24__throw_conversion_errorEv
_ZNSt10unique_ptrI10HocCommandSt14default_deleteIS0_EED1Ev
_ZNSt10unique_ptrINSt10filesystem7__cxx114path5_List5_ImplENS3_13_Impl_deleterEED1Ev
_ZNSt10unique_ptrINSt6thread6_StateESt14default_deleteIS1_EED1Ev
_ZNSt11unique_lockISt5mutexE6unlockEv
_ZNSt12_Vector_baseIP10CvMembListSaIS1_EED2Ev
_ZNSt12_Vector_baseIiSaIiEED2Ev
_ZNSt18codecvt_utf8_utf16IwLm1114111ELSt12codecvt_mode0EED0Ev
_ZNSt18codecvt_utf8_utf16IwLm1114111ELSt12codecvt_mode0EED1Ev
_ZNSt19bad_optional_accessD0Ev
_ZNSt19bad_optional_accessD1Ev
_ZNSt6thread11_State_implINS_8_InvokerISt5tupleIJPFvvEEEEEE6_M_runEv
_ZNSt6thread11_State_implINS_8_InvokerISt5tupleIJPFvvEEEEEED0Ev
_ZNSt6thread11_State_implINS_8_InvokerISt5tupleIJPFvvEEEEEED1Ev
_ZNSt6vectorI13STETransitionSaIS0_EE17_M_realloc_insertIJRP13Point_processEEEvN9__gnu_cxx17__normal_iteratorIPS0_S2_EEDpOT_
_ZNSt6vectorI6SecPosSaIS0_EE17_M_realloc_insertIJRKS0_EEEvN9__gnu_cxx17__normal_iteratorIPS0_S2_EEDpOT_
_ZNSt6vectorI8STEStateSaIS0_EE17_M_default_appendEy
_ZNSt6vectorI8STEStateSaIS0_EED1Ev
_ZNSt6vectorI9SplitCellSaIS0_EE17_M_realloc_insertIJS0_EEEvN9__gnu_cxx17__normal_iteratorIPS0_S2_EEDpOT_
_ZNSt6vectorINSt10filesystem7__cxx114pathESaIS2_EE17_M_realloc_insertIJRKS2_EEEvN9__gnu_cxx17__normal_iteratorIPS2_S4_EEDpOT_
_ZNSt6vectorIP10MultiSplitSaIS1_EE17_M_realloc_insertIJRKS1_EEEvN9__gnu_cxx17__normal_iteratorIPS1_S3_EEDpOT_
_ZNSt6vectorIP10RandomPlaySaIS1_EE17_M_realloc_insertIJS1_EEEvN9__gnu_cxx17__normal_iteratorIPS1_S3_EEDpOT_
_ZNSt6vectorIP10SecMappingSaIS1_EE17_M_realloc_insertIJRKS1_EEEvN9__gnu_cxx17__normal_iteratorIPS1_S3_EEDpOT_
_ZNSt6vectorIP11CellMappingSaIS1_EE17_M_realloc_insertIJRKS1_EEEvN9__gnu_cxx17__normal_iteratorIPS1_S3_EEDpOT_
_ZNSt6vectorIP13Point_processSaIS1_EE17_M_default_appendEy
_ZNSt6vectorIP13Point_processSaIS1_EE17_M_realloc_insertIJRKS1_EEEvN9__gnu_cxx17__normal_iteratorIPS1_S3_EEDpOT_
_ZNSt6vectorIP14WatchConditionSaIS1_EE17_M_realloc_insertIJRKS1_EEEvN9__gnu_cxx17__normal_iteratorIPS1_S3_EEDpOT_
_ZNSt6vectorIP15FInitialHandlerSaIS1_EE17_M_realloc_insertIJS1_EEEvN9__gnu_cxx17__normal_iteratorIPS1_S3_EEDpOT_
_ZNSt6vectorIP4NodeSaIS1_EE17_M_default_appendEy
_ZNSt6vectorIP4NodeSaIS1_EE17_M_realloc_insertIJS1_EEEvN9__gnu_cxx17__normal_iteratorIPS1_S3_EEDpOT_
_ZNSt6vectorIP6HTListSaIS1_EE17_M_realloc_insertIJRKS1_EEEvN9__gnu_cxx17__normal_iteratorIPS1_S3_EEDpOT_
_ZNSt6vectorIP6KSChanSaIS1_EE17_M_realloc_insertIJRKS1_EEEvN9__gnu_cxx17__normal_iteratorIPS1_S3_EEDpOT_
_ZNSt6vectorIP6KSChanSaIS1_EE17_M_realloc_insertIJS1_EEEvN9__gnu_cxx17__normal_iteratorIPS1_S3_EEDpOT_
_ZNSt6vectorIP6NetConSaIS1_EE17_M_realloc_insertIJS1_EEEvN9__gnu_cxx17__normal_iteratorIPS1_S3_EEDpOT_
_ZNSt6vectorIP6ObjectSaIS1_EE17_M_realloc_insertIJRKS1_EEEvN9__gnu_cxx17__normal_iteratorIPS1_S3_EEDpOT_
_ZNSt6vectorIP6PreSynSaIS1_EE17_M_realloc_insertIJRKS1_EEEvN9__gnu_cxx17__normal_iteratorIPS1_S3_EEDpOT_
_ZNSt6vectorIP6SEWrapSaIS1_EE17_M_realloc_insertIJRKS1_EEEvN9__gnu_cxx17__normal_iteratorIPS1_S3_EEDpOT_
_ZNSt6vectorIP6TQItemSaIS1_EE17_M_realloc_insertIJRKS1_EEEvN9__gnu_cxx17__normal_iteratorIPS1_S3_EEDpOT_
_ZNSt6vectorIP6TQItemSaIS1_EE17_M_realloc_insertIJS1_EEEvN9__gnu_cxx17__normal_iteratorIPS1_S3_EEDpOT_
_ZNSt6vectorIP8HocEventSaIS1_EE17_M_realloc_insertIJRKS1_EEEvN9__gnu_cxx17__normal_iteratorIPS1_S3_EEDpOT_
_ZNSt6vectorIPFiiiPdS0_iESaIS2_EE17_M_realloc_insertIJRKS2_EEEvN9__gnu_cxx17__normal_iteratorIPS2_S4_EEDpOT_
_ZNSt6vectorIPFvPviESaIS2_EE17_M_realloc_insertIJRKS2_EEEvN9__gnu_cxx17__normal_iteratorIPS2_S4_EEDpOT_
_ZNSt6vectorIPP6NetConSaIS2_EE17_M_realloc_insertIJRKS2_EEEvN9__gnu_cxx17__normal_iteratorIPS2_S4_EEDpOT_
_ZNSt6vectorIPcSaIS0_EE17_M_realloc_insertIJS0_EEEvN9__gnu_cxx17__normal_iteratorIPS0_S2_EEDpOT_
_ZNSt6vectorIPdSaIS0_EE17_M_default_appendEy
_ZNSt6vectorIPdSaIS0_EE17_M_realloc_insertIJRKS0_EEEvN9__gnu_cxx17__normal_iteratorIPS0_S2_EEDpOT_
_ZNSt6vectorIS_IP6HTListSaIS1_EESaIS3_EE17_M_default_appendEy
_ZNSt6vectorISt10unique_ptrISt13unordered_mapIiP6PreSynSt4hashIiESt8equal_toIiESaISt4pairIKiS3_EEESt14default_deleteISC_EESaISF_EE17_M_default_appendEy
_ZNSt6vectorISt3mapIiP9Memb_listSt4lessIiESaISt4pairIKiS2_EEESaIS9_EE17_M_default_appendEy
_ZNSt6vectorISt4pairIPdP8IvocVectESaIS4_EE17_M_default_appendEy
_ZNSt6vectorISt4pairIPdP8IvocVectESaIS4_EE17_M_realloc_insertIJS4_EEEvN9__gnu_cxx17__normal_iteratorIPS4_S6_EEDpOT_
_ZNSt6vectorISt4pairIiP9Memb_listESaIS3_EE17_M_realloc_insertIJS3_EEEvN9__gnu_cxx17__normal_iteratorIPS3_S5_EEDpOT_
_ZNSt6vectorISt6threadSaIS0_EE17_M_realloc_insertIJEEEvN9__gnu_cxx17__normal_iteratorIPS0_S2_EEDpOT_
_ZNSt6vectorISt7variantIJdP6Symboli16stack_ndim_datumPP6ObjectS5_PPcPdDnEESaISA_EE17_M_default_appendEy
_ZNSt6vectorIdSaIdEE17_M_default_appendEy
_ZNSt6vectorIdSaIdEE17_M_realloc_insertIJRKdEEEvN9__gnu_cxx17__normal_iteratorIPdS1_EEDpOT_
_ZNSt6vectorIdSaIdEE7reserveEy
_ZNSt6vectorIdSaIdEE9push_backERKd
_ZNSt6vectorIiSaIiEE17_M_default_appendEy
_ZNSt6vectorIiSaIiEE17_M_realloc_insertIJRKiEEEvN9__gnu_cxx17__normal_iteratorIPiS1_EEDpOT_
_ZNSt6vectorIiSaIiEE17_M_realloc_insertIJiEEEvN9__gnu_cxx17__normal_iteratorIPiS1_EEDpOT_
_ZNSt6vectorIySaIyEE17_M_realloc_insertIJRKyEEEvN9__gnu_cxx17__normal_iteratorIPyS1_EEDpOT_
_ZNSt7__cxx1115basic_stringbufIcSt11char_traitsIcESaIcEED1Ev
_ZNSt7__cxx114listIP6NrnDAESaIS2_EE6removeERKS2_
_ZNSt7__cxx119to_stringEi
_ZNSt8_Rb_treeI8osStringSt4pairIKS0_P6SymbolESt10_Select1stIS5_ESt4lessIS0_ESaIS5_EE22_M_emplace_hint_uniqueIJRS0_RS4_EEESt17_Rb_tree_iteratorIS5_ESt23_Rb_tree_const_iteratorIS5_EDpOT_
_ZNSt8_Rb_treeI8osStringSt4pairIKS0_P6SymbolESt10_Select1stIS5_ESt4lessIS0_ESaIS5_EE24_M_get_insert_unique_posERS2_
_ZNSt8_Rb_treeI8osStringSt4pairIKS0_P6SymbolESt10_Select1stIS5_ESt4lessIS0_ESaIS5_EE29_M_get_insert_hint_unique_posESt23_Rb_tree_const_iteratorIS5_ERS2_
_ZNSt8_Rb_treeI8osStringSt4pairIKS0_P6SymbolESt10_Select1stIS5_ESt4lessIS0_ESaIS5_EE4findERS2_
_ZNSt8_Rb_treeIKNSt7__cxx1112basic_stringIcSt11char_traitsIcESaIcEEESt4pairIS6_S7_I8CorStypePvEESt10_Select1stISB_ESt4lessIS6_ESaISB_EE24_M_get_insert_unique_posERS6_
_ZNSt8_Rb_treeIKNSt7__cxx1112basic_stringIcSt11char_traitsIcESaIcEEESt4pairIS6_S7_I8CorStypePvEESt10_Select1stISB_ESt4lessIS6_ESaISB_EE4findERS6_
_ZNSt8_Rb_treeIP10ivObserverSt4pairIKS1_PdESt10_Select1stIS5_ESt4lessIS1_ESaIS5_EE11equal_rangeERS3_
_ZNSt8_Rb_treeIP10ivObserverSt4pairIKS1_PvESt10_Select1stIS5_ESt4lessIS1_ESaIS5_EE11equal_rangeERS3_
_ZNSt8_Rb_treeIPKcSt4pairIKS1_P9bbsmpibufESt10_Select1stIS6_E5ltstrSaIS6_EE15_M_insert_equalIS6_EESt17_Rb_tree_iteratorIS6_EOT_
_ZNSt8_Rb_treeIPKcSt4pairIKS1_P9bbsmpibufESt10_Select1stIS6_E5ltstrSaIS6_EE4findERS3_
_ZNSt8_Rb_treeIPKcSt4pairIKS1_PK12MessageValueESt10_Select1stIS7_E5ltstrSaIS7_EE4findERS3_
_ZNSt8_Rb_treeIPKcSt4pairIKS1_S1_ESt10_Select1stIS4_ESt4lessIS1_ESaIS4_EE24_M_get_insert_unique_posERS3_
_ZNSt8_Rb_treeIPdSt4pairIKS0_P10ivObserverESt10_Select1stIS5_ESt4lessIS0_ESaIS5_EE16_M_emplace_equalIJS1_IS0_S4_EEEESt17_Rb_tree_iteratorIS5_EDpOT_
_ZNSt8_Rb_treeIPdSt4pairIKS0_iESt10_Select1stIS3_ESt4lessIS0_ESaIS3_EE22_M_emplace_hint_uniqueIJS1_IS0_iEEEESt17_Rb_tree_iteratorIS3_ESt23_Rb_tree_const_iteratorIS3_EDpOT_
_ZNSt8_Rb_treeIPdSt4pairIKS0_iESt10_Select1stIS3_ESt4lessIS0_ESaIS3_EE24_M_get_insert_unique_posERS2_
_ZNSt8_Rb_treeIPdSt4pairIKS0_iESt10_Select1stIS3_ESt4lessIS0_ESaIS3_EE29_M_get_insert_hint_unique_posESt23_Rb_tree_const_iteratorIS3_ERS2_
_ZNSt8_Rb_treeIPvSt4pairIKS0_P10ivObserverESt10_Select1stIS5_ESt4lessIS0_ESaIS5_EE16_M_emplace_equalIJS1_IS0_S4_EEEESt17_Rb_tree_iteratorIS5_EDpOT_
_ZNSt8_Rb_treeIPvSt4pairIKS0_P9PathValueESt10_Select1stIS5_ESt4lessIS0_ESaIS5_EE24_M_get_insert_unique_posERS2_
_ZNSt8_Rb_treeIPvSt4pairIKS0_P9PathValueESt10_Select1stIS5_ESt4lessIS0_ESaIS5_EE29_M_get_insert_hint_unique_posESt23_Rb_tree_const_iteratorIS5_ERS2_
_ZNSt8_Rb_treeIPvSt4pairIKS0_iESt10_Select1stIS3_ESt4lessIS0_ESaIS3_EE22_M_emplace_hint_uniqueIJRP13Point_processyEEESt17_Rb_tree_iteratorIS3_ESt23_Rb_tree_const_iteratorIS3_EDpOT_
_ZNSt8_Rb_treeIPvSt4pairIKS0_iESt10_Select1stIS3_ESt4lessIS0_ESaIS3_EE24_M_get_insert_unique_posERS2_
_ZNSt8_Rb_treeIiSt4pairIKiP9Memb_listESt10_Select1stIS4_ESt4lessIiESaIS4_EE24_M_get_insert_unique_posERS1_
_ZNSt8_Rb_treeIiSt4pairIKiP9bbsmpibufESt10_Select1stIS4_E5ltintSaIS4_EE16_M_insert_uniqueIS4_EES0_ISt17_Rb_tree_iteratorIS4_EbEOT_
_ZNSt8_Rb_treeIiSt4pairIKiPK11MpiWorkItemESt10_Select1stIS5_E5ltintSaIS5_EE16_M_insert_uniqueIS5_EES0_ISt17_Rb_tree_iteratorIS5_EbEOT_
_ZNSt8_Rb_treeIiSt4pairIKiPK8WorkItemESt10_Select1stIS5_E5ltintSaIS5_EE16_M_insert_uniqueIS5_EES0_ISt17_Rb_tree_iteratorIS5_EbEOT_
_ZNSt8_Rb_treeIiSt4pairIKiS0_IiiEESt10_Select1stIS3_ESt4lessIiESaIS3_EE24_M_get_insert_unique_posERS1_
_ZNSt8_Rb_treeIiSt4pairIKiiESt10_Select1stIS2_ESt4lessIiESaIS2_EE24_M_get_insert_unique_posERS1_
_ZNSt8__detail9_Map_baseINSt7__cxx1112basic_stringIcSt11char_traitsIcESaIcEEESt4pairIKS6_P7SectionESaISB_ENS_10_Select1stESt8equal_toIS6_ESt4hashIS6_ENS_18_Mod_range_hashingENS_20_Default_ranged_hashENS_20_Prime_rehash_policyENS_17_Hashtable_traitsILb1ELb0ELb1EEELb1EEixERS8_
_ZNSt8__detail9_Map_baseIP13Point_processSt4pairIKS2_P6DEListESaIS7_ENS_10_Select1stESt8equal_toIS2_ESt4hashIS2_ENS_18_Mod_range_hashingENS_20_Default_ranged_hashENS_20_Prime_rehash_policyENS_17_Hashtable_traitsILb0ELb0ELb1EEELb1EEixERS4_
_ZNSt8__detail9_Map_baseIP4NodeSt4pairIKS2_P10MultiSplitESaIS7_ENS_10_Select1stESt8equal_toIS2_ESt4hashIS2_ENS_18_Mod_range_hashingENS_20_Default_ranged_hashENS_20_Prime_rehash_policyENS_17_Hashtable_traitsILb0ELb0ELb1EEELb1EEixERS4_
_ZNSt8__detail9_Map_baseIP6NetConSt4pairIKS2_PSt6vectorIdSaIdEEESaIS9_ENS_10_Select1stESt8equal_toIS2_ESt4hashIS2_ENS_18_Mod_range_hashingENS_20_Default_ranged_hashENS_20_Prime_rehash_policyENS_17_Hashtable_traitsILb0ELb0ELb1EEELb1EEixERS4_
_ZNSt8__detail9_Map_baseIP6NetConSt4pairIKS2_St6vectorIySaIyEEESaIS8_ENS_10_Select1stESt8equal_toIS2_ESt4hashIS2_ENS_18_Mod_range_hashingENS_20_Default_ranged_hashENS_20_Prime_rehash_policyENS_17_Hashtable_traitsILb0ELb0ELb1EEELb1EEixERS4_
_ZNSt8__detail9_Map_baseIP6PreSynSt4pairIKS2_St6vectorIySaIyEEESaIS8_ENS_10_Select1stESt8equal_toIS2_ESt4hashIS2_ENS_18_Mod_range_hashingENS_20_Default_ranged_hashENS_20_Prime_rehash_policyENS_17_Hashtable_traitsILb0ELb0ELb1EEELb1EEixERS4_
_ZNSt8__detail9_Map_baseIPdSt4pairIKS1_P6PreSynESaIS6_ENS_10_Select1stESt8equal_toIS1_ESt4hashIS1_ENS_18_Mod_range_hashingENS_20_Default_ranged_hashENS_20_Prime_rehash_policyENS_17_Hashtable_traitsILb0ELb0ELb1EEELb1EEixERS3_
_ZNSt8__detail9_Map_baseIPdSt4pairIKS1_St6vectorIySaIyEEESaIS7_ENS_10_Select1stESt8equal_toIS1_ESt4hashIS1_ENS_18_Mod_range_hashingENS_20_Default_ranged_hashENS_20_Prime_rehash_policyENS_17_Hashtable_traitsILb0ELb0ELb1EEELb1EEixERS3_
_ZNSt8__detail9_Map_baseIPvSt4pairIKS1_P6NetConESaIS6_ENS_10_Select1stESt8equal_toIS1_ESt4hashIS1_ENS_18_Mod_range_hashingENS_20_Default_ranged_hashENS_20_Prime_rehash_policyENS_17_Hashtable_traitsILb0ELb0ELb1EEELb1EEixEOS1_
_ZNSt8__detail9_Map_baseIiSt4pairIKiP6PreSynESaIS5_ENS_10_Select1stESt8equal_toIiESt4hashIiENS_18_Mod_range_hashingENS_20_Default_ranged_hashENS_20_Prime_rehash_policyENS_17_Hashtable_traitsILb0ELb0ELb1EEELb1EEixERS2_
_ZNSt8__detail9_Map_baseIiSt4pairIKiPSt6vectorIdSaIdEEESaIS7_ENS_10_Select1stESt8equal_toIiESt4hashIiENS_18_Mod_range_hashingENS_20_Default_ranged_hashENS_20_Prime_rehash_policyENS_17_Hashtable_traitsILb0ELb0ELb1EEELb1EEixERS2_
_ZNSt8__detail9_Map_baseIiSt4pairIKiiESaIS3_ENS_10_Select1stESt8equal_toIiESt4hashIiENS_18_Mod_range_hashingENS_20_Default_ranged_hashENS_20_Prime_rehash_policyENS_17_Hashtable_traitsILb0ELb0ELb1EEELb1EEixERS2_
_ZNSt8__detail9_Map_baseIlSt4pairIKlP6NetConESaIS5_ENS_10_Select1stESt8equal_toIlESt4hashIlENS_18_Mod_range_hashingENS_20_Default_ranged_hashENS_20_Prime_rehash_policyENS_17_Hashtable_traitsILb0ELb0ELb1EEELb1EEixEOl
_ZSt27__throw_bad_optional_accessv
_ZStplIcSt11char_traitsIcESaIcEENSt7__cxx1112basic_stringIT_T0_T1_EEPKS5_OS8_
_ZStplIcSt11char_traitsIcESaIcEENSt7__cxx1112basic_stringIT_T0_T1_EEPKS5_RKS8_
_ZTI10BoxDismiss
_ZTI10Checkpoint
_ZTI10ColorValue
_ZTI10CvMembList
_ZTI10EPSPrinter
_ZTI10HocCommand
_ZTI10LinePicker
_ZTI10MFKitFrame
_ZTI10MWcanvas16
_ZTI10MacPrinter
_ZTI10NetConSave
_ZTI10PWMDismiss
_ZTI10PaperScene
_ZTI10PlayRecord
_ZTI10PreSynSave
_ZTI10RandomPlay
_ZTI10RightArrow
_ZTI10Rotation3d
_ZTI10RubberLine
_ZTI10RubberRect
_ZTI10RubberTool
_ZTI10Rubberband
_ZTI10SMFKitInfo
_ZTI10SceneMover
_ZTI10ScreenItem
_ZTI10ShapeScene
_ZTI10SymChooser
_ZTI10TvecRecord
_ZTI10ValEdLabel
_ZTI10ViewWindow
_ZTI10WinDismiss
_ZTI10YvecRecord
_ZTI10ivMenuItem
_ZTI10ivObserver
_ZTI10ivResource
_ZTI10ivTelltale
_ZTI10ivXYSlider
_ZTI10osStdInput
_ZTI11BBSaveState
_ZTI11FieldDialog
_ZTI11GLineRecord
_ZTI11GrGlyphItem
_ZTI11GraphVector
_ZTI11HandleStdin
_ZTI11HandlerTool
_ZTI11HocVarLabel
_ZTI11IvocAliases
_ZTI11KSChanBGinf
_ZTI11KSChanBGtau
_ZTI11KSChanConst
_ZTI11KSChanTable
_ZTI11KSIvNonSpec
_ZTI11LayoutLayer
_ZTI11MechVarType
_ZTI11MessageItem
_ZTI11MpiWorkItem
_ZTI11NetParEvent
_ZTI11NrnProperty
_ZTI11OcPtrVector
_ZTI11OcViewGlyph
_ZTI11RadioSelect
_ZTI11ReducedTree
_ZTI11Rotate3Band
_ZTI11SMFKitFrame
_ZTI11SMFKitGlyph
_ZTI11SMFKitThumb
_ZTI11ScenePicker
_ZTI11ScreenScene
_ZTI11SectionList
_ZTI11StepperMenu
_ZTI11TextHandler
_ZTI11TrayDismiss
_ZTI11ValueString
_ZTI11VecPlayStep
_ZTI11VecRecordDt
_ZTI11dpIOHandler
_ZTI11ivBitmapRep
_ZTI11ivDialogKit
_ZTI11ivLayoutKit
_ZTI11ivMonoGlyph
_ZTI11ivPlacement
_ZTI11ivPolyGlyph
_ZTI11ivScrollBox
_ZTI11ivSuperpose
_ZTI11ivWidgetKit
_ZTI11ivWindowRep
_ZTI11osDirectory
_ZTI11osInputFile
_ZTI12BoundedValue
_ZTI12BrushPalette
_ZTI12ColorPalette
_ZTI12DataPointers
_ZTI12DatumIndices
_ZTI12DialogAction
_ZTI12ForwardPager
_ZTI12HocDataPaths
_ZTI12HocValAction
_ZTI12HocValEditor
_ZTI12KSChanLinoid
_ZTI12KSTransition
_ZTI12MakeTimePlot
_ZTI12MechSelector
_ZTI12MessageValue
_ZTI12NPInsetFrame
_ZTI12NonLinImpRep
_ZTI12NrnRandom123
_ZTI12OcCheckpoint
_ZTI12OcFullMatrix
_ZTI12OcLabelGlyph
_ZTI12OcReadChkPnt
_ZTI12RangeVarPlot
_ZTI12RubberAction
_ZTI12SPObjectName
_ZTI12STECondition
_ZTI12ShapeSection
_ZTI12SpecialPatch
_ZTI12SymDirectory
_ZTI12iv3_TextLine
_ZTI12ivAdjustable
_ZTI12ivBackground
_ZTI12ivBevelFrame
_ZTI12ivChoiceItem
_ZTI12ivFontFamily
_ZTI12ivObservable
_ZTI12osCopyString
_ZTI13BBSS_BufferIn
_ZTI13BackwardPager
_ZTI13BoxBackground
_ZTI13BrowserAccept
_ZTI13DialogHandler
_ZTI13DiscreteEvent
_ZTI13Discretionary
_ZTI13FastGraphItem
_ZTI13GPolyLineItem
_ZTI13GVectorRecord
_ZTI13GraphAxisItem
_ZTI13GraphMarkItem
_ZTI13HocMenuAction
_ZTI13HocPushButton
_ZTI13HocUpdateItem
_ZTI13HocValStepper
_ZTI13KSChanSigmoid
_ZTI13KSGateComplex
_ZTI13KSPPIvNonSpec
_ZTI13KSSingleState
_ZTI13KSSingleTrans
_ZTI13LineExtension
_ZTI13MFKitMenuItem
_ZTI13MakeSpacePlot
_ZTI13MechanismType
_ZTI13MoveLabelBand
_ZTI13ObjObservable
_ZTI13OcGlyphDialog
_ZTI13OcListBrowser
_ZTI13OcMLineEditor
_ZTI13ParseTopLevel
_ZTI13ShapePlotData
_ZTI13ShapePlotImpl
_ZTI13VirtualWindow
_ZTI13WholePlotView
_ZTI13XYView_helper
_ZTI13ivFieldEditor
_ZTI13ivFileBrowser
_ZTI13ivFileChooser
_ZTI13ivFixedLayout
_ZTI13ivMFDialogKit
_ZTI13ivPopupWindow
_ZTI13ivTBScrollBox
_ZTI13ivTransformer
_ZTI14AxisBackground
_ZTI14BBSLocalServer
_ZTI14BBSS_BufferOut
_ZTI14BBSS_TxtFileIn
_ZTI14ButtonItemInfo
_ZTI14ConditionEvent
_ZTI14GraphLabelItem
_ZTI14HocCommandTool
_ZTI14HocRadioAction
_ZTI14HocRadioButton
_ZTI14HocStateButton
_ZTI14HyperGeometric
_ZTI14KSChanFunction
_ZTI14Multisend_Send
_ZTI14NegativeExpntl
_ZTI14NrnFixedLayout
_ZTI14OcShapeHandler
_ZTI14OcSparseMatrix
_ZTI14PBrowserAccept
_ZTI14PlayRecordSave
_ZTI14SectionBrowser
_ZTI14SectionHandler
_ZTI14StandardPicker
_ZTI14StandardWindow
_ZTI14VectorLineItem
_ZTI14WatchCondition
_ZTI14WholeSceneView
_ZTI14iv3_TextBuffer
_ZTI14iv3_TextRegion
_ZTI14ivCenterLayout
_ZTI14ivInputHandler
_ZTI14ivMarginLayout
_ZTI14ivTileReversed
_ZTI14osUniqueString
_ZTI15BBSDirectServer
_ZTI15BBSS_TxtFileOut
_ZTI15ClassObservable
_ZTI15CvodeThreadData
_ZTI15DiscreteUniform
_ZTI15FInitialHandler
_ZTI15ForwardScroller
_ZTI15LinearMechanism
_ZTI15MFKitForeground
_ZTI15NewLabelHandler
_ZTI15OcBrowserAccept
_ZTI15OcTelltaleGroup
_ZTI15PlayRecordEvent
_ZTI15PortablePointer
_ZTI15PrintableWindow
_ZTI15SMFKitCheckmark
_ZTI15SMFKitIndicator
_ZTI15SMFKitRadioFlag
_ZTI15SMFKitRadioItem
_ZTI15ScenePickerImpl
_ZTI15VecPlayStepSave
_ZTI15VecRecordDtSave
_ZTI15ivActiveHandler
_ZTI15ivManagedWindow
_ZTI15ivNaturalLayout
_ZTI15ivTelltaleGroup
_ZTI15ivTelltaleState
_ZTI16BackwardScroller
_ZTI16ColorBrushWidget
_ZTI16HocCommandAction
_ZTI16HocEditorForItem
_ZTI16HocStateMenuItem
_ZTI16KSSingleNodeData
_ZTI16LineRubberMarker
_ZTI16MacPrinterCanvas
_ZTI16MultiSplitThread
_ZTI16OcGlyphContainer
_ZTI16OcSectionBrowser
_ZTI16SymBrowserAccept
_ZTI16SymChooserAction
_ZTI16SymDirectoryImpl
_ZTI16WidgetKitOverlay
_ZTI16ivTopLevelWindow
_ZTI16ivVariableLayout
_ZTI17DeleteLineHandler
_ZTI17DismissableWindow
_ZTI17MechanismStandard
_ZTI17MultiSplitControl
_ZTI17PanelInputHandler
_ZTI17PaperItem_handler
_ZTI17PointProcessGlyph
_ZTI17SMFKitButtonFrame
_ZTI17ScreenItemHandler
_ZTI17StepperMenuAction
_ZTI17VecPlayContinuous
_ZTI17VecRecordDiscrete
_ZTI17ivAllocationTable
_ZTI17ivTransformFitter
_ZTI17ivTransformSetter
_ZTI17ivTransientWindow
_ZTI18ChangeLabelHandler
_ZTI18DeleteLabelHandler
_ZTI18HocDefaultCheckbox
_ZTI18LabelChooserAction
_ZTI18NetCvodeThreadData
_ZTI18SMFKitDefaultArrow
_ZTI18ScreenSceneHandler
_ZTI18ShapePlotInterface
_ZTI18VirtualWindowScale
_ZTI18iv3_TextAnnotation
_ZTI18ivInputHandlerImpl
_ZTI18ivTileFirstAligned
_ZTI19ColorValueGlyphItem
_ZTI19HocDefaultValEditor
_ZTI19LinearModelAddition
_ZTI19PointProcessBrowser
_ZTI19SMFKitMenuItemFrame
_ZTI19ShapeChangeObserver
_ZTI19ivApplicationWindow
_ZTI19ivFieldEditorAction
_ZTI19ivFileChooserAction
_ZTI20Graph_ActionCallback
_ZTI20iv3_TextLineAdjuster
_ZTI21Multisend_Send_Phase2
_ZTI21SMFKitPushButtonFrame
_ZTI21VecPlayContinuousSave
_ZTI21VecRecordDiscreteSave
_ZTI22PWMImpl_ActionCallback
_ZTI22PrintableWindowManager
_ZTI22osNullTerminatedString
_ZTI23HocValEditorKeepUpdated
_ZTI23Multisend_ReceiveBuffer
_ZTI23iv3_Text_ActionCallback
_ZTI24ivSession_ActionCallback
_ZTI25ShapeScene_ActionCallback
_ZTI25ShapeScene_RubberCallback
_ZTI26ivTileReversedFirstAligned
_ZTI28ShapePlotImpl_ActionCallback
_ZTI29HocStateButton_ActionCallback
_ZTI29SymChooserImpl_ActionCallback
_ZTI2Oc
_ZTI30PrintableWindow_ActionCallback
_ZTI31FieldDialog_FieldEditorCallback
_ZTI31HocStateMenuItem_ActionCallback
_ZTI32HocValAction_FieldEditorCallback
_ZTI32ivFileChooserImpl_ActionCallback
_ZTI34HocDefaultValEditor_ActionCallback
_ZTI34SymChooserImpl_FieldEditorCallback
_ZTI37ivFileChooserImpl_FieldEditorCallback
_ZTI3ACG
_ZTI3BBS
_ZTI3Imp
_ZTI3RNG
_ZTI4Axis
_ZTI4BinQ
_ZTI4KSIv
_ZTI4MLCG
_ZTI4View
_ZTI5Cvode
_ZTI5Daspk
_ZTI5Graph
_ZTI5OcBBS
_ZTI5OcBox
_ZTI5Scene
_ZTI5Space
_ZTI5Strut
_ZTI5ivBox
_ZTI5ivHit
_ZTI6Appear
_ZTI6Circle
_ZTI6Erlang
_ZTI6GLabel
_ZTI6HStrut
_ZTI6HTList
_ZTI6Hinton
_ZTI6KSChan
_ZTI6KSPPIv
_ZTI6NetCon
_ZTI6Normal
_ZTI6NrnDAE
_ZTI6OcDeck
_ZTI6OcFile
_ZTI6OcList
_ZTI6OcText
_ZTI6OcTray
_ZTI6PreSyn
_ZTI6Random
_ZTI6SEWrap
_ZTI6TQItem
_ZTI6TQueue
_ZTI6VStrut
_ZTI6XYView
_ZTI6ivDeck
_ZTI6ivFont
_ZTI6ivGlue
_ZTI6ivLine
_ZTI6ivMenu
_ZTI6ivTile
_ZTI6osFile
_ZTI7BBSImpl
_ZTI7BBSS_IO
_ZTI7DataVec
_ZTI7GrGlyph
_ZTI7HocItem
_ZTI7HocMark
_ZTI7HocMenu
_ZTI7Isaac64
_ZTI7KSIvghk
_ZTI7KSState
_ZTI7NewView
_ZTI7OcGlyph
_ZTI7OcShape
_ZTI7OcTimer
_ZTI7PPBImpl
_ZTI7PPShape
_ZTI7Poisson
_ZTI7ShapeOf
_ZTI7TarList
_ZTI7Uniform
_ZTI7UpArrow
_ZTI7Weibull
_ZTI7ivAlign
_ZTI7ivBevel
_ZTI7ivBrush
_ZTI7ivColor
_ZTI7ivEvent
_ZTI7ivGlyph
_ZTI7ivImage
_ZTI7ivLabel
_ZTI7ivMFKit
_ZTI7ivMacro
_ZTI7ivPatch
_ZTI7ivStyle
_ZTI8BBSLocal
_ZTI8BBSS_Cnt
_ZTI8Binomial
_ZTI8DBAction
_ZTI8HocEvent
_ZTI8HocLabel
_ZTI8HocMarkP
_ZTI8HocPanel
_ZTI8HocRadio
_ZTI8KSSingle
_ZTI8MWcanvas
_ZTI8MWwindow
_ZTI8NetCvode
_ZTI8OcMatrix
_ZTI8OcSlider
_ZTI8ShowMenu
_ZTI8SpecView
_ZTI8StmtInfo
_ZTI8Triangle
_ZTI8WorkItem
_ZTI8ZoomIn10
_ZTI8iv3_Text
_ZTI8ivAction
_ZTI8ivBitmap
_ZTI8ivBorder
_ZTI8ivButton
_ZTI8ivCanvas
_ZTI8ivDialog
_ZTI8ivLayout
_ZTI8ivRaster
_ZTI8ivSMFKit
_ZTI8ivSlider
_ZTI8ivTarget
_ZTI8ivWindow
_ZTI8nrn_Rect
_ZTI8osString
_ZTI9BBSClient
_ZTI9BBSDirect
_ZTI9BoxAdjust
_ZTI9CellGroup
_ZTI9DownArrow
_ZTI9FastShape
_ZTI9GAxisItem
_ZTI9GPolyLine
_ZTI9Geometric
_ZTI9GraphItem
_ZTI9GraphLine
_ZTI9HocAction
_ZTI9HocButton
_ZTI9KSChanExp
_ZTI9KSPPIvghk
_ZTI9LeftArrow
_ZTI9LogNormal
_ZTI9MCellRan4
_ZTI9MFKitInfo
_ZTI9NonLinImp
_ZTI9NrnUpDown
_ZTI9OcBrowser
_ZTI9OcHandler
_ZTI9OcPointer
_ZTI9PaperItem
_ZTI9PointMark
_ZTI9PopupMenu
_ZTI9RangeExpr
_ZTI9Rectangle
_ZTI9RoundView
_ZTI9SaveState
_ZTI9SceneZoom
_ZTI9SelfEvent
_ZTI9SelfQueue
_ZTI9ShapePlot
_ZTI9ShapeType
_ZTI9ShapeView
_ZTI9SizeScene
_ZTI9ZoomOut10
_ZTI9ivBrowser
_ZTI9ivDisplay
_ZTI9ivHandler
_ZTI9ivPrinter
_ZTI9ivSession
_ZTI9ivStencil
_ZTI9ivStepper
_ZTI9ivXSlider
_ZTI9ivYSlider
_ZTIN6neuron2oc13runtime_errorE
_ZTINSt10filesystem7__cxx1116filesystem_errorE
_ZTINSt6locale5facetE
_ZTINSt6thread11_State_implINS_8_InvokerISt5tupleIJPFvvEEEEEEE
_ZTINSt6thread6_StateE
_ZTISt12codecvt_base
_ZTISt12system_error
_ZTISt13runtime_error
_ZTISt18codecvt_utf8_utf16IwLm1114111ELSt12codecvt_mode0EE
_ZTISt19bad_optional_access
_ZTISt23__codecvt_abstract_baseIwciE
_ZTISt25__codecvt_utf8_utf16_baseIwE
_ZTISt7codecvtIwciE
_ZTISt9bad_alloc
_ZTISt9exception
_ZTIZNSt10filesystem7__cxx114path10_S_convertIcEEDaPKT_S5_E5_UCvt
_ZTS10BoxDismiss
_ZTS10Checkpoint
_ZTS10ColorValue
_ZTS10CvMembList
_ZTS10EPSPrinter
_ZTS10HocCommand
_ZTS10LinePicker
_ZTS10MFKitFrame
_ZTS10MWcanvas16
_ZTS10MacPrinter
_ZTS10NetConSave
_ZTS10PWMDismiss
_ZTS10PaperScene
_ZTS10PlayRecord
_ZTS10PreSynSave
_ZTS10RandomPlay
_ZTS10RightArrow
_ZTS10Rotation3d
_ZTS10RubberLine
_ZTS10RubberRect
_ZTS10RubberTool
_ZTS10Rubberband
_ZTS10SMFKitInfo
_ZTS10SceneMover
_ZTS10ScreenItem
_ZTS10ShapeScene
_ZTS10SymChooser
_ZTS10TvecRecord
_ZTS10ValEdLabel
_ZTS10ViewWindow
_ZTS10WinDismiss
_ZTS10YvecRecord
_ZTS10ivMenuItem
_ZTS10ivObserver
_ZTS10ivResource
_ZTS10ivTelltale
_ZTS10ivXYSlider
_ZTS10osStdInput
_ZTS11BBSaveState
_ZTS11FieldDialog
_ZTS11GLineRecord
_ZTS11GrGlyphItem
_ZTS11GraphVector
_ZTS11HandleStdin
_ZTS11HandlerTool
_ZTS11HocVarLabel
_ZTS11IvocAliases
_ZTS11KSChanBGinf
_ZTS11KSChanBGtau
_ZTS11KSChanConst
_ZTS11KSChanTable
_ZTS11KSIvNonSpec
_ZTS11LayoutLayer
_ZTS11MechVarType
_ZTS11MessageItem
_ZTS11MpiWorkItem
_ZTS11NetParEvent
_ZTS11NrnProperty
_ZTS11OcPtrVector
_ZTS11OcViewGlyph
_ZTS11RadioSelect
_ZTS11ReducedTree
_ZTS11Rotate3Band
_ZTS11SMFKitFrame
_ZTS11SMFKitGlyph
_ZTS11SMFKitThumb
_ZTS11ScenePicker
_ZTS11ScreenScene
_ZTS11SectionList
_ZTS11StepperMenu
_ZTS11TextHandler
_ZTS11TrayDismiss
_ZTS11ValueString
_ZTS11VecPlayStep
_ZTS11VecRecordDt
_ZTS11dpIOHandler
_ZTS11ivBitmapRep
_ZTS11ivDialogKit
_ZTS11ivLayoutKit
_ZTS11ivMonoGlyph
_ZTS11ivPlacement
_ZTS11ivPolyGlyph
_ZTS11ivScrollBox
_ZTS11ivSuperpose
_ZTS11ivWidgetKit
_ZTS11ivWindowRep
_ZTS11osDirectory
_ZTS11osInputFile
_ZTS12BoundedValue
_ZTS12BrushPalette
_ZTS12ColorPalette
_ZTS12DataPointers
_ZTS12DatumIndices
_ZTS12DialogAction
_ZTS12ForwardPager
_ZTS12HocDataPaths
_ZTS12HocValAction
_ZTS12HocValEditor
_ZTS12KSChanLinoid
_ZTS12KSTransition
_ZTS12MakeTimePlot
_ZTS12MechSelector
_ZTS12MessageValue
_ZTS12NPInsetFrame
_ZTS12NonLinImpRep
_ZTS12NrnRandom123
_ZTS12OcCheckpoint
_ZTS12OcFullMatrix
_ZTS12OcLabelGlyph
_ZTS12OcReadChkPnt
_ZTS12RangeVarPlot
_ZTS12RubberAction
_ZTS12SPObjectName
_ZTS12STECondition
_ZTS12ShapeSection
_ZTS12SpecialPatch
_ZTS12SymDirectory
_ZTS12iv3_TextLine
_ZTS12ivAdjustable
_ZTS12ivBackground
_ZTS12ivBevelFrame
_ZTS12ivChoiceItem
_ZTS12ivFontFamily
_ZTS12ivObservable
_ZTS12osCopyString
_ZTS13BBSS_BufferIn
_ZTS13BackwardPager
_ZTS13BoxBackground
_ZTS13BrowserAccept
_ZTS13DialogHandler
_ZTS13DiscreteEvent
_ZTS13Discretionary
_ZTS13FastGraphItem
_ZTS13GPolyLineItem
_ZTS13GVectorRecord
_ZTS13GraphAxisItem
_ZTS13GraphMarkItem
_ZTS13HocMenuAction
_ZTS13HocPushButton
_ZTS13HocUpdateItem
_ZTS13HocValStepper
_ZTS13KSChanSigmoid
_ZTS13KSGateComplex
_ZTS13KSPPIvNonSpec
_ZTS13KSSingleState
_ZTS13KSSingleTrans
_ZTS13LineExtension
_ZTS13MFKitMenuItem
_ZTS13MakeSpacePlot
_ZTS13MechanismType
_ZTS13MoveLabelBand
_ZTS13ObjObservable
_ZTS13OcGlyphDialog
_ZTS13OcListBrowser
_ZTS13OcMLineEditor
_ZTS13ParseTopLevel
_ZTS13ShapePlotData
_ZTS13ShapePlotImpl
_ZTS13VirtualWindow
_ZTS13WholePlotView
_ZTS13XYView_helper
_ZTS13ivFieldEditor
_ZTS13ivFileBrowser
_ZTS13ivFileChooser
_ZTS13ivFixedLayout
_ZTS13ivMFDialogKit
_ZTS13ivPopupWindow
_ZTS13ivTBScrollBox
_ZTS13ivTransformer
_ZTS14AxisBackground
_ZTS14BBSLocalServer
_ZTS14BBSS_BufferOut
_ZTS14BBSS_TxtFileIn
_ZTS14ButtonItemInfo
_ZTS14ConditionEvent
_ZTS14GraphLabelItem
_ZTS14HocCommandTool
_ZTS14HocRadioAction
_ZTS14HocRadioButton
_ZTS14HocStateButton
_ZTS14HyperGeometric
_ZTS14KSChanFunction
_ZTS14Multisend_Send
_ZTS14NegativeExpntl
_ZTS14NrnFixedLayout
_ZTS14OcShapeHandler
_ZTS14OcSparseMatrix
_ZTS14PBrowserAccept
_ZTS14PlayRecordSave
_ZTS14SectionBrowser
_ZTS14SectionHandler
_ZTS14StandardPicker
_ZTS14StandardWindow
_ZTS14VectorLineItem
_ZTS14WatchCondition
_ZTS14WholeSceneView
_ZTS14iv3_TextBuffer
_ZTS14iv3_TextRegion
_ZTS14ivCenterLayout
_ZTS14ivInputHandler
_ZTS14ivMarginLayout
_ZTS14ivTileReversed
_ZTS14osUniqueString
_ZTS15BBSDirectServer
_ZTS15BBSS_TxtFileOut
_ZTS15ClassObservable
_ZTS15CvodeThreadData
_ZTS15DiscreteUniform
_ZTS15FInitialHandler
_ZTS15ForwardScroller
_ZTS15LinearMechanism
_ZTS15MFKitForeground
_ZTS15NewLabelHandler
_ZTS15OcBrowserAccept
_ZTS15OcTelltaleGroup
_ZTS15PlayRecordEvent
_ZTS15PortablePointer
_ZTS15PrintableWindow
_ZTS15SMFKitCheckmark
_ZTS15SMFKitIndicator
_ZTS15SMFKitRadioFlag
_ZTS15SMFKitRadioItem
_ZTS15ScenePickerImpl
_ZTS15VecPlayStepSave
_ZTS15VecRecordDtSave
_ZTS15ivActiveHandler
_ZTS15ivManagedWindow
_ZTS15ivNaturalLayout
_ZTS15ivTelltaleGroup
_ZTS15ivTelltaleState
_ZTS16BackwardScroller
_ZTS16ColorBrushWidget
_ZTS16HocCommandAction
_ZTS16HocEditorForItem
_ZTS16HocStateMenuItem
_ZTS16KSSingleNodeData
_ZTS16LineRubberMarker
_ZTS16MacPrinterCanvas
_ZTS16MultiSplitThread
_ZTS16OcGlyphContainer
_ZTS16OcSectionBrowser
_ZTS16SymBrowserAccept
_ZTS16SymChooserAction
_ZTS16SymDirectoryImpl
_ZTS16WidgetKitOverlay
_ZTS16ivTopLevelWindow
_ZTS16ivVariableLayout
_ZTS16stack_ndim_datum
_ZTS17DeleteLineHandler
_ZTS17DismissableWindow
_ZTS17MechanismStandard
_ZTS17MultiSplitControl
_ZTS17PanelInputHandler
_ZTS17PaperItem_handler
_ZTS17PointProcessGlyph
_ZTS17SMFKitButtonFrame
_ZTS17ScreenItemHandler
_ZTS17StepperMenuAction
_ZTS17VecPlayContinuous
_ZTS17VecRecordDiscrete
_ZTS17ivAllocationTable
_ZTS17ivTransformFitter
_ZTS17ivTransformSetter
_ZTS17ivTransientWindow
_ZTS18ChangeLabelHandler
_ZTS18DeleteLabelHandler
_ZTS18HocDefaultCheckbox
_ZTS18LabelChooserAction
_ZTS18NetCvodeThreadData
_ZTS18SMFKitDefaultArrow
_ZTS18ScreenSceneHandler
_ZTS18ShapePlotInterface
_ZTS18VirtualWindowScale
_ZTS18iv3_TextAnnotation
_ZTS18ivInputHandlerImpl
_ZTS18ivTileFirstAligned
_ZTS19ColorValueGlyphItem
_ZTS19HocDefaultValEditor
_ZTS19LinearModelAddition
_ZTS19PointProcessBrowser
_ZTS19SMFKitMenuItemFrame
_ZTS19ShapeChangeObserver
_ZTS19ivApplicationWindow
_ZTS19ivFieldEditorAction
_ZTS19ivFileChooserAction
_ZTS20Graph_ActionCallback
_ZTS20iv3_TextLineAdjuster
_ZTS21Multisend_Send_Phase2
_ZTS21SMFKitPushButtonFrame
_ZTS21VecPlayContinuousSave
_ZTS21VecRecordDiscreteSave
_ZTS22PWMImpl_ActionCallback
_ZTS22PrintableWindowManager
_ZTS22osNullTerminatedString
_ZTS23HocValEditorKeepUpdated
_ZTS23Multisend_ReceiveBuffer
_ZTS23iv3_Text_ActionCallback
_ZTS24ivSession_ActionCallback
_ZTS25ShapeScene_ActionCallback
_ZTS25ShapeScene_RubberCallback
_ZTS26ivTileReversedFirstAligned
_ZTS28ShapePlotImpl_ActionCallback
_ZTS29HocStateButton_ActionCallback
_ZTS29SymChooserImpl_ActionCallback
_ZTS2Oc
_ZTS30PrintableWindow_ActionCallback
_ZTS31FieldDialog_FieldEditorCallback
_ZTS31HocStateMenuItem_ActionCallback
_ZTS32HocValAction_FieldEditorCallback
_ZTS32ivFileChooserImpl_ActionCallback
_ZTS34HocDefaultValEditor_ActionCallback
_ZTS34SymChooserImpl_FieldEditorCallback
_ZTS37ivFileChooserImpl_FieldEditorCallback
_ZTS3ACG
_ZTS3BBS
_ZTS3Imp
_ZTS3RNG
_ZTS4Axis
_ZTS4BinQ
_ZTS4KSIv
_ZTS4MLCG
_ZTS4View
_ZTS5Cvode
_ZTS5Daspk
_ZTS5Graph
_ZTS5OcBBS
_ZTS5OcBox
_ZTS5Scene
_ZTS5Space
_ZTS5Strut
_ZTS5ivBox
_ZTS5ivHit
_ZTS6Appear
_ZTS6Circle
_ZTS6Erlang
_ZTS6GLabel
_ZTS6HStrut
_ZTS6HTList
_ZTS6Hinton
_ZTS6KSChan
_ZTS6KSPPIv
_ZTS6NetCon
_ZTS6Normal
_ZTS6NrnDAE
_ZTS6OcDeck
_ZTS6OcFile
_ZTS6OcList
_ZTS6OcText
_ZTS6OcTray
_ZTS6PreSyn
_ZTS6Random
_ZTS6SEWrap
_ZTS6TQItem
_ZTS6TQueue
_ZTS6VStrut
_ZTS6XYView
_ZTS6ivDeck
_ZTS6ivFont
_ZTS6ivGlue
_ZTS6ivLine
_ZTS6ivMenu
_ZTS6ivTile
_ZTS6osFile
_ZTS7BBSImpl
_ZTS7BBSS_IO
_ZTS7DataVec
_ZTS7GrGlyph
_ZTS7HocItem
_ZTS7HocMark
_ZTS7HocMenu
_ZTS7Isaac64
_ZTS7KSIvghk
_ZTS7KSState
_ZTS7NewView
_ZTS7OcGlyph
_ZTS7OcShape
_ZTS7OcTimer
_ZTS7PPBImpl
_ZTS7PPShape
_ZTS7Poisson
_ZTS7ShapeOf
_ZTS7TarList
_ZTS7Uniform
_ZTS7UpArrow
_ZTS7Weibull
_ZTS7ivAlign
_ZTS7ivBevel
_ZTS7ivBrush
_ZTS7ivColor
_ZTS7ivEvent
_ZTS7ivGlyph
_ZTS7ivImage
_ZTS7ivLabel
_ZTS7ivMFKit
_ZTS7ivMacro
_ZTS7ivPatch
_ZTS7ivStyle
_ZTS8BBSLocal
_ZTS8BBSS_Cnt
_ZTS8Binomial
_ZTS8DBAction
_ZTS8HocEvent
_ZTS8HocLabel
_ZTS8HocMarkP
_ZTS8HocPanel
_ZTS8HocRadio
_ZTS8KSSingle
_ZTS8MWcanvas
_ZTS8MWwindow
_ZTS8NetCvode
_ZTS8OcMatrix
_ZTS8OcSlider
_ZTS8ShowMenu
_ZTS8SpecView
_ZTS8StmtInfo
_ZTS8Triangle
_ZTS8WorkItem
_ZTS8ZoomIn10
_ZTS8iv3_Text
_ZTS8ivAction
_ZTS8ivBitmap
_ZTS8ivBorder
_ZTS8ivButton
_ZTS8ivCanvas
_ZTS8ivDialog
_ZTS8ivLayout
_ZTS8ivRaster
_ZTS8ivSMFKit
_ZTS8ivSlider
_ZTS8ivTarget
_ZTS8ivWindow
_ZTS8nrn_Rect
_ZTS8osString
_ZTS9BBSClient
_ZTS9BBSDirect
_ZTS9BoxAdjust
_ZTS9CellGroup
_ZTS9DownArrow
_ZTS9FastShape
_ZTS9GAxisItem
_ZTS9GPolyLine
_ZTS9Geometric
_ZTS9GraphItem
_ZTS9GraphLine
_ZTS9HocAction
_ZTS9HocButton
_ZTS9KSChanExp
_ZTS9KSPPIvghk
_ZTS9LeftArrow
_ZTS9LogNormal
_ZTS9MCellRan4
_ZTS9MFKitInfo
_ZTS9NonLinImp
_ZTS9NrnUpDown
_ZTS9OcBrowser
_ZTS9OcHandler
_ZTS9OcPointer
_ZTS9PaperItem
_ZTS9PointMark
_ZTS9PopupMenu
_ZTS9RangeExpr
_ZTS9Rectangle
_ZTS9RoundView
_ZTS9SaveState
_ZTS9SceneZoom
_ZTS9SelfEvent
_ZTS9SelfQueue
_ZTS9ShapePlot
_ZTS9ShapeType
_ZTS9ShapeView
_ZTS9SizeScene
_ZTS9ZoomOut10
_ZTS9ivBrowser
_ZTS9ivDisplay
_ZTS9ivHandler
_ZTS9ivPrinter
_ZTS9ivSession
_ZTS9ivStencil
_ZTS9ivStepper
_ZTS9ivXSlider
_ZTS9ivYSlider
_ZTSN6neuron2oc13runtime_errorE
_ZTSNSt10filesystem7__cxx1116filesystem_errorE
_ZTSNSt6locale5facetE
_ZTSNSt6thread11_State_implINS_8_InvokerISt5tupleIJPFvvEEEEEEE
_ZTSNSt6thread6_StateE
_ZTSP6Object
_ZTSP6Symbol
_ZTSPP6Object
_ZTSPPc
_ZTSSt12codecvt_base
_ZTSSt12system_error
_ZTSSt13runtime_error
_ZTSSt18codecvt_utf8_utf16IwLm1114111ELSt12codecvt_mode0EE
_ZTSSt19bad_optional_access
_ZTSSt23__codecvt_abstract_baseIwciE
_ZTSSt25__codecvt_utf8_utf16_baseIwE
_ZTSSt7codecvtIwciE
_ZTSSt9bad_alloc
_ZTSSt9exception
_ZTSZNSt10filesystem7__cxx114path10_S_convertIcEEDaPKT_S5_E5_UCvt
_ZTV10BoxDismiss
_ZTV10Checkpoint
_ZTV10ColorValue
_ZTV10CvMembList
_ZTV10EPSPrinter
_ZTV10HocCommand
_ZTV10LinePicker
_ZTV10MFKitFrame
_ZTV10MWcanvas16
_ZTV10MacPrinter
_ZTV10NetConSave
_ZTV10PWMDismiss
_ZTV10PaperScene
_ZTV10PlayRecord
_ZTV10PreSynSave
_ZTV10RandomPlay
_ZTV10RightArrow
_ZTV10Rotation3d
_ZTV10RubberLine
_ZTV10RubberRect
_ZTV10RubberTool
_ZTV10Rubberband
_ZTV10SMFKitInfo
_ZTV10SceneMover
_ZTV10ScreenItem
_ZTV10ShapeScene
_ZTV10SymChooser
_ZTV10TvecRecord
_ZTV10ValEdLabel
_ZTV10ViewWindow
_ZTV10WinDismiss
_ZTV10YvecRecord
_ZTV10ivMenuItem
_ZTV10ivObserver
_ZTV10ivResource
_ZTV10ivTelltale
_ZTV10ivXYSlider
_ZTV10osStdInput
_ZTV11BBSaveState
_ZTV11FieldDialog
_ZTV11GLineRecord
_ZTV11GrGlyphItem
_ZTV11GraphVector
_ZTV11HandleStdin
_ZTV11HandlerTool
_ZTV11HocVarLabel
_ZTV11IvocAliases
_ZTV11KSChanBGinf
_ZTV11KSChanBGtau
_ZTV11KSChanConst
_ZTV11KSChanTable
_ZTV11KSIvNonSpec
_ZTV11LayoutLayer
_ZTV11MechVarType
_ZTV11MessageItem
_ZTV11MpiWorkItem
_ZTV11NetParEvent
_ZTV11NrnProperty
_ZTV11OcPtrVector
_ZTV11OcViewGlyph
_ZTV11RadioSelect
_ZTV11ReducedTree
_ZTV11Rotate3Band
_ZTV11SMFKitFrame
_ZTV11SMFKitGlyph
_ZTV11SMFKitThumb
_ZTV11ScenePicker
_ZTV11ScreenScene
_ZTV11SectionList
_ZTV11StepperMenu
_ZTV11TextHandler
_ZTV11TrayDismiss
_ZTV11ValueString
_ZTV11VecPlayStep
_ZTV11VecRecordDt
_ZTV11dpIOHandler
_ZTV11ivBitmapRep
_ZTV11ivDialogKit
_ZTV11ivLayoutKit
_ZTV11ivMonoGlyph
_ZTV11ivPlacement
_ZTV11ivPolyGlyph
_ZTV11ivScrollBox
_ZTV11ivSuperpose
_ZTV11ivWidgetKit
_ZTV11ivWindowRep
_ZTV11osDirectory
_ZTV11osInputFile
_ZTV12BoundedValue
_ZTV12BrushPalette
_ZTV12ColorPalette
_ZTV12DataPointers
_ZTV12DatumIndices
_ZTV12DialogAction
_ZTV12ForwardPager
_ZTV12HocDataPaths
_ZTV12HocValAction
_ZTV12HocValEditor
_ZTV12KSChanLinoid
_ZTV12KSTransition
_ZTV12MakeTimePlot
_ZTV12MechSelector
_ZTV12MessageValue
_ZTV12NPInsetFrame
_ZTV12NonLinImpRep
_ZTV12NrnRandom123
_ZTV12OcCheckpoint
_ZTV12OcFullMatrix
_ZTV12OcLabelGlyph
_ZTV12OcReadChkPnt
_ZTV12RangeVarPlot
_ZTV12RubberAction
_ZTV12SPObjectName
_ZTV12STECondition
_ZTV12ShapeSection
_ZTV12SpecialPatch
_ZTV12SymDirectory
_ZTV12iv3_TextLine
_ZTV12ivAdjustable
_ZTV12ivBackground
_ZTV12ivBevelFrame
_ZTV12ivChoiceItem
_ZTV12ivFontFamily
_ZTV12ivObservable
_ZTV12osCopyString
_ZTV13BBSS_BufferIn
_ZTV13BackwardPager
_ZTV13BoxBackground
_ZTV13BrowserAccept
_ZTV13DialogHandler
_ZTV13DiscreteEvent
_ZTV13Discretionary
_ZTV13FastGraphItem
_ZTV13GPolyLineItem
_ZTV13GVectorRecord
_ZTV13GraphAxisItem
_ZTV13GraphMarkItem
_ZTV13HocMenuAction
_ZTV13HocPushButton
_ZTV13HocUpdateItem
_ZTV13HocValStepper
_ZTV13KSChanSigmoid
_ZTV13KSGateComplex
_ZTV13KSPPIvNonSpec
_ZTV13KSSingleState
_ZTV13KSSingleTrans
_ZTV13LineExtension
_ZTV13MFKitMenuItem
_ZTV13MakeSpacePlot
_ZTV13MechanismType
_ZTV13MoveLabelBand
_ZTV13ObjObservable
_ZTV13OcGlyphDialog
_ZTV13OcListBrowser
_ZTV13OcMLineEditor
_ZTV13ParseTopLevel
_ZTV13ShapePlotData
_ZTV13ShapePlotImpl
_ZTV13VirtualWindow
_ZTV13WholePlotView
_ZTV13XYView_helper
_ZTV13ivFieldEditor
_ZTV13ivFileBrowser
_ZTV13ivFileChooser
_ZTV13ivFixedLayout
_ZTV13ivMFDialogKit
_ZTV13ivPopupWindow
_ZTV13ivTBScrollBox
_ZTV13ivTransformer
_ZTV14AxisBackground
_ZTV14BBSLocalServer
_ZTV14BBSS_BufferOut
_ZTV14BBSS_TxtFileIn
_ZTV14ButtonItemInfo
_ZTV14ConditionEvent
_ZTV14GraphLabelItem
_ZTV14HocCommandTool
_ZTV14HocRadioAction
_ZTV14HocRadioButton
_ZTV14HocStateButton
_ZTV14HyperGeometric
_ZTV14KSChanFunction
_ZTV14Multisend_Send
_ZTV14NegativeExpntl
_ZTV14NrnFixedLayout
_ZTV14OcShapeHandler
_ZTV14OcSparseMatrix
_ZTV14PBrowserAccept
_ZTV14PlayRecordSave
_ZTV14SectionBrowser
_ZTV14SectionHandler
_ZTV14StandardPicker
_ZTV14StandardWindow
_ZTV14VectorLineItem
_ZTV14WatchCondition
_ZTV14WholeSceneView
_ZTV14iv3_TextBuffer
_ZTV14iv3_TextRegion
_ZTV14ivCenterLayout
_ZTV14ivInputHandler
_ZTV14ivMarginLayout
_ZTV14ivTileReversed
_ZTV14osUniqueString
_ZTV15BBSDirectServer
_ZTV15BBSS_TxtFileOut
_ZTV15ClassObservable
_ZTV15CvodeThreadData
_ZTV15DiscreteUniform
_ZTV15FInitialHandler
_ZTV15ForwardScroller
_ZTV15LinearMechanism
_ZTV15MFKitForeground
_ZTV15NewLabelHandler
_ZTV15OcBrowserAccept
_ZTV15OcTelltaleGroup
_ZTV15PlayRecordEvent
_ZTV15PortablePointer
_ZTV15PrintableWindow
_ZTV15SMFKitCheckmark
_ZTV15SMFKitIndicator
_ZTV15SMFKitRadioFlag
_ZTV15SMFKitRadioItem
_ZTV15ScenePickerImpl
_ZTV15VecPlayStepSave
_ZTV15VecRecordDtSave
_ZTV15ivActiveHandler
_ZTV15ivManagedWindow
_ZTV15ivNaturalLayout
_ZTV15ivTelltaleGroup
_ZTV15ivTelltaleState
_ZTV16BackwardScroller
_ZTV16ColorBrushWidget
_ZTV16HocCommandAction
_ZTV16HocEditorForItem
_ZTV16HocStateMenuItem
_ZTV16KSSingleNodeData
_ZTV16LineRubberMarker
_ZTV16MacPrinterCanvas
_ZTV16MultiSplitThread
_ZTV16OcGlyphContainer
_ZTV16OcSectionBrowser
_ZTV16SymBrowserAccept
_ZTV16SymChooserAction
_ZTV16SymDirectoryImpl
_ZTV16WidgetKitOverlay
_ZTV16ivTopLevelWindow
_ZTV16ivVariableLayout
_ZTV17DeleteLineHandler
_ZTV17DismissableWindow
_ZTV17MechanismStandard
_ZTV17MultiSplitControl
_ZTV17PanelInputHandler
_ZTV17PaperItem_handler
_ZTV17PointProcessGlyph
_ZTV17SMFKitButtonFrame
_ZTV17ScreenItemHandler
_ZTV17StepperMenuAction
_ZTV17VecPlayContinuous
_ZTV17VecRecordDiscrete
_ZTV17ivAllocationTable
_ZTV17ivTransformFitter
_ZTV17ivTransformSetter
_ZTV17ivTransientWindow
_ZTV18ChangeLabelHandler
_ZTV18DeleteLabelHandler
_ZTV18HocDefaultCheckbox
_ZTV18LabelChooserAction
_ZTV18NetCvodeThreadData
_ZTV18SMFKitDefaultArrow
_ZTV18ScreenSceneHandler
_ZTV18VirtualWindowScale
_ZTV18iv3_TextAnnotation
_ZTV18ivInputHandlerImpl
_ZTV18ivTileFirstAligned
_ZTV19ColorValueGlyphItem
_ZTV19HocDefaultValEditor
_ZTV19LinearModelAddition
_ZTV19PointProcessBrowser
_ZTV19SMFKitMenuItemFrame
_ZTV19ShapeChangeObserver
_ZTV19ivApplicationWindow
_ZTV19ivFieldEditorAction
_ZTV19ivFileChooserAction
_ZTV20Graph_ActionCallback
_ZTV20iv3_TextLineAdjuster
_ZTV21Multisend_Send_Phase2
_ZTV21SMFKitPushButtonFrame
_ZTV21VecPlayContinuousSave
_ZTV21VecRecordDiscreteSave
_ZTV22PWMImpl_ActionCallback
_ZTV22PrintableWindowManager
_ZTV22osNullTerminatedString
_ZTV23HocValEditorKeepUpdated
_ZTV23Multisend_ReceiveBuffer
_ZTV23iv3_Text_ActionCallback
_ZTV24ivSession_ActionCallback
_ZTV25ShapeScene_ActionCallback
_ZTV25ShapeScene_RubberCallback
_ZTV26ivTileReversedFirstAligned
_ZTV28ShapePlotImpl_ActionCallback
_ZTV29HocStateButton_ActionCallback
_ZTV29SymChooserImpl_ActionCallback
_ZTV2Oc
_ZTV30PrintableWindow_ActionCallback
_ZTV31FieldDialog_FieldEditorCallback
_ZTV31HocStateMenuItem_ActionCallback
_ZTV32HocValAction_FieldEditorCallback
_ZTV32ivFileChooserImpl_ActionCallback
_ZTV34HocDefaultValEditor_ActionCallback
_ZTV34SymChooserImpl_FieldEditorCallback
_ZTV37ivFileChooserImpl_FieldEditorCallback
_ZTV3ACG
_ZTV3BBS
_ZTV3Imp
_ZTV3RNG
_ZTV4Axis
_ZTV4BinQ
_ZTV4KSIv
_ZTV4MLCG
_ZTV4View
_ZTV5Cvode
_ZTV5Daspk
_ZTV5Graph
_ZTV5OcBBS
_ZTV5OcBox
_ZTV5Scene
_ZTV5Space
_ZTV5Strut
_ZTV5ivBox
_ZTV5ivHit
_ZTV6Appear
_ZTV6Circle
_ZTV6Erlang
_ZTV6GLabel
_ZTV6HStrut
_ZTV6HTList
_ZTV6Hinton
_ZTV6KSChan
_ZTV6KSPPIv
_ZTV6NetCon
_ZTV6Normal
_ZTV6NrnDAE
_ZTV6OcDeck
_ZTV6OcFile
_ZTV6OcList
_ZTV6OcText
_ZTV6OcTray
_ZTV6PreSyn
_ZTV6SEWrap
_ZTV6TQItem
_ZTV6TQueue
_ZTV6VStrut
_ZTV6XYView
_ZTV6ivDeck
_ZTV6ivFont
_ZTV6ivGlue
_ZTV6ivLine
_ZTV6ivMenu
_ZTV6ivTile
_ZTV6osFile
_ZTV7BBSImpl
_ZTV7BBSS_IO
_ZTV7DataVec
_ZTV7GrGlyph
_ZTV7HocItem
_ZTV7HocMark
_ZTV7HocMenu
_ZTV7Isaac64
_ZTV7KSIvghk
_ZTV7KSState
_ZTV7NewView
_ZTV7OcGlyph
_ZTV7OcShape
_ZTV7OcTimer
_ZTV7PPBImpl
_ZTV7PPShape
_ZTV7Poisson
_ZTV7ShapeOf
_ZTV7TarList
_ZTV7Uniform
_ZTV7UpArrow
_ZTV7Weibull
_ZTV7ivAlign
_ZTV7ivBevel
_ZTV7ivBrush
_ZTV7ivColor
_ZTV7ivEvent
_ZTV7ivGlyph
_ZTV7ivImage
_ZTV7ivLabel
_ZTV7ivMFKit
_ZTV7ivMacro
_ZTV7ivPatch
_ZTV7ivStyle
_ZTV8BBSLocal
_ZTV8BBSS_Cnt
_ZTV8Binomial
_ZTV8DBAction
_ZTV8HocEvent
_ZTV8HocLabel
_ZTV8HocMarkP
_ZTV8HocPanel
_ZTV8HocRadio
_ZTV8KSSingle
_ZTV8MWcanvas
_ZTV8MWwindow
_ZTV8NetCvode
_ZTV8OcMatrix
_ZTV8OcSlider
_ZTV8ShowMenu
_ZTV8SpecView
_ZTV8StmtInfo
_ZTV8Triangle
_ZTV8WorkItem
_ZTV8ZoomIn10
_ZTV8iv3_Text
_ZTV8ivAction
_ZTV8ivBitmap
_ZTV8ivBorder
_ZTV8ivButton
_ZTV8ivCanvas
_ZTV8ivDialog
_ZTV8ivLayout
_ZTV8ivRaster
_ZTV8ivSMFKit
_ZTV8ivSlider
_ZTV8ivTarget
_ZTV8ivWindow
_ZTV8nrn_Rect
_ZTV8osString
_ZTV9BBSClient
_ZTV9BBSDirect
_ZTV9BoxAdjust
_ZTV9CellGroup
_ZTV9DownArrow
_ZTV9FastShape
_ZTV9GAxisItem
_ZTV9GPolyLine
_ZTV9Geometric
_ZTV9GraphItem
_ZTV9GraphLine
_ZTV9HocAction
_ZTV9HocButton
_ZTV9KSChanExp
_ZTV9KSPPIvghk
_ZTV9LeftArrow
_ZTV9LogNormal
_ZTV9MCellRan4
_ZTV9MFKitInfo
_ZTV9NonLinImp
_ZTV9NrnUpDown
_ZTV9OcBrowser
_ZTV9OcHandler
_ZTV9OcPointer
_ZTV9PaperItem
_ZTV9PointMark
_ZTV9PopupMenu
_ZTV9RangeExpr
_ZTV9Rectangle
_ZTV9RoundView
_ZTV9SaveState
_ZTV9SceneZoom
_ZTV9SelfEvent
_ZTV9SelfQueue
_ZTV9ShapePlot
_ZTV9ShapeType
_ZTV9ShapeView
_ZTV9SizeScene
_ZTV9ZoomOut10
_ZTV9ivBrowser
_ZTV9ivDisplay
_ZTV9ivHandler
_ZTV9ivPrinter
_ZTV9ivSession
_ZTV9ivStencil
_ZTV9ivStepper
_ZTV9ivXSlider
_ZTV9ivYSlider
_ZTVN6neuron2oc13runtime_errorE
_ZTVNSt6thread11_State_implINS_8_InvokerISt5tupleIJPFvvEEEEEEE
_ZTVSt18codecvt_utf8_utf16IwLm1114111ELSt12codecvt_mode0EE
_ZTVSt19bad_optional_access
_ZTVZNSt10filesystem7__cxx114path10_S_convertIcEEDaPKT_S5_E5_UCvt
_ZThn112_N20iv3_TextLineAdjuster6updateEP12ivObservable
_ZThn112_N20iv3_TextLineAdjusterD0Ev
_ZThn112_N20iv3_TextLineAdjusterD1Ev
_ZThn160_N10ViewWindowD0Ev
_ZThn160_N10ViewWindowD1Ev
_ZThn160_N14StandardWindowD0Ev
_ZThn160_N14StandardWindowD1Ev
_ZThn160_N15PrintableWindowD0Ev
_ZThn160_N15PrintableWindowD1Ev
_ZThn16_N10ColorValueD0Ev
_ZThn16_N10ColorValueD1Ev
_ZThn16_N10PaperSceneD0Ev
_ZThn16_N10PaperSceneD1Ev
_ZThn16_N10ShapeSceneD0Ev
_ZThn16_N10ShapeSceneD1Ev
_ZThn16_N10ivMenuItem6updateEP12ivObservable
_ZThn16_N10ivMenuItemD0Ev
_ZThn16_N10ivMenuItemD1Ev
_ZThn16_N11ScreenSceneD0Ev
_ZThn16_N11ScreenSceneD1Ev
_ZThn16_N15ivTelltaleStateD0Ev
_ZThn16_N15ivTelltaleStateD1Ev
_ZThn16_N16ColorBrushWidget6updateEP12ivObservable
_ZThn16_N16ColorBrushWidgetD0Ev
_ZThn16_N16ColorBrushWidgetD1Ev
_ZThn16_N4Axis6updateEP12ivObservable
_ZThn16_N4AxisD0Ev
_ZThn16_N4AxisD1Ev
_ZThn16_N5GraphD0Ev
_ZThn16_N5GraphD1Ev
_ZThn16_N5OcBBSD0Ev
_ZThn16_N5OcBBSD1Ev
_ZThn16_N5SceneD0Ev
_ZThn16_N5SceneD1Ev
_ZThn16_N6OcList6updateEP12ivObservable
_ZThn16_N6OcListD0Ev
_ZThn16_N6OcListD1Ev
_ZThn16_N7OcShapeD0Ev
_ZThn16_N7OcShapeD1Ev
_ZThn16_N7PPShapeD0Ev
_ZThn16_N7PPShapeD1Ev
_ZThn16_N9ShapePlotD0Ev
_ZThn16_N9ShapePlotD1Ev
_ZThn216_N10ViewWindow6updateEP12ivObservable
_ZThn216_N10ViewWindowD0Ev
_ZThn216_N10ViewWindowD1Ev
_ZThn24_N10ivTelltale10disconnectEP12ivObservable
_ZThn24_N10ivTelltaleD0Ev
_ZThn24_N10ivTelltaleD1Ev
_ZThn24_N11ivScrollBoxD0Ev
_ZThn24_N11ivScrollBoxD1Ev
_ZThn24_N12iv3_TextLineD0Ev
_ZThn24_N12iv3_TextLineD1Ev
_ZThn24_N12ivChoiceItem6updateEP12ivObservable
_ZThn24_N12ivChoiceItemD0Ev
_ZThn24_N12ivChoiceItemD1Ev
_ZThn24_N13ivTBScrollBox12page_forwardEj
_ZThn24_N13ivTBScrollBox13page_backwardEj
_ZThn24_N13ivTBScrollBox14scroll_forwardEj
_ZThn24_N13ivTBScrollBox15scroll_backwardEj
_ZThn24_N13ivTBScrollBox9scroll_toEjf
_ZThn24_N13ivTBScrollBoxD0Ev
_ZThn24_N13ivTBScrollBoxD1Ev
_ZThn24_N6OcTextD0Ev
_ZThn24_N6OcTextD1Ev
_ZThn24_N8iv3_Text12page_forwardEj
_ZThn24_N8iv3_Text13page_backwardEj
_ZThn24_N8iv3_Text14scroll_forwardEj
_ZThn24_N8iv3_Text15scroll_backwardEj
_ZThn24_N8iv3_Text9scroll_toEjf
_ZThn24_N8iv3_TextD0Ev
_ZThn24_N8iv3_TextD1Ev
_ZThn24_N9PointMark10disconnectEP12ivObservable
_ZThn24_N9PointMark6updateEP12ivObservable
_ZThn24_N9PointMarkD0Ev
_ZThn24_N9PointMarkD1Ev
_ZThn24_NK13ivTBScrollBox10cur_lengthEj
_ZThn24_NK13ivTBScrollBox5lowerEj
_ZThn24_NK13ivTBScrollBox5upperEj
_ZThn24_NK13ivTBScrollBox6lengthEj
_ZThn24_NK13ivTBScrollBox9cur_lowerEj
_ZThn24_NK13ivTBScrollBox9cur_upperEj
_ZThn24_NK8iv3_Text10cur_lengthEj
_ZThn24_NK8iv3_Text5lowerEj
_ZThn24_NK8iv3_Text5upperEj
_ZThn24_NK8iv3_Text6lengthEj
_ZThn24_NK8iv3_Text9cur_lowerEj
_ZThn24_NK8iv3_Text9cur_upperEj
_ZThn32_N13OcListBrowserD0Ev
_ZThn32_N13OcListBrowserD1Ev
_ZThn32_N13ivFileBrowserD0Ev
_ZThn32_N13ivFileBrowserD1Ev
_ZThn32_N14SectionBrowserD0Ev
_ZThn32_N14SectionBrowserD1Ev
_ZThn32_N16OcSectionBrowserD0Ev
_ZThn32_N16OcSectionBrowserD1Ev
_ZThn32_N18iv3_TextAnnotation7executeEv
_ZThn32_N18iv3_TextAnnotationD0Ev
_ZThn32_N18iv3_TextAnnotationD1Ev
_ZThn32_N19PointProcessBrowserD0Ev
_ZThn32_N19PointProcessBrowserD1Ev
_ZThn32_N9OcBrowserD0Ev
_ZThn32_N9OcBrowserD1Ev
_ZThn32_N9ivBrowser6updateEP12ivObservable
_ZThn32_N9ivBrowserD0Ev
_ZThn32_N9ivBrowserD1Ev
_ZThn408_N9ShapePlot11has_iv_viewEv
_ZThn408_N9ShapePlot19neuron_section_listEv
_ZThn408_N9ShapePlot3lowEv
_ZThn408_N9ShapePlot4highEv
_ZThn408_N9ShapePlot5scaleEff
_ZThn408_N9ShapePlot6varobjEPv
_ZThn408_N9ShapePlot8variableEP6Symbol
_ZThn408_NK9ShapePlot6varobjEv
_ZThn408_NK9ShapePlot7varnameEv
_ZThn40_N10ivXYSlider10disconnectEP12ivObservable
_ZThn40_N10ivXYSliderD0Ev
_ZThn40_N10ivXYSliderD1Ev
_ZThn40_N12ForwardPagerD0Ev
_ZThn40_N12ForwardPagerD1Ev
_ZThn40_N13BackwardPagerD0Ev
_ZThn40_N13BackwardPagerD1Ev
_ZThn40_N13HocValStepperD0Ev
_ZThn40_N13HocValStepperD1Ev
_ZThn40_N15ForwardScrollerD0Ev
_ZThn40_N15ForwardScrollerD1Ev
_ZThn40_N16BackwardScrollerD0Ev
_ZThn40_N16BackwardScrollerD1Ev
_ZThn40_N18HocDefaultCheckboxD0Ev
_ZThn40_N18HocDefaultCheckboxD1Ev
_ZThn40_N8ivButton6updateEP12ivObservable
_ZThn40_N8ivButtonD0Ev
_ZThn40_N8ivButtonD1Ev
_ZThn40_N8ivSlider6updateEP12ivObservable
_ZThn40_N8ivSliderD0Ev
_ZThn40_N8ivSliderD1Ev
_ZThn40_N9HocButtonD0Ev
_ZThn40_N9HocButtonD1Ev
_ZThn40_N9ivStepperD0Ev
_ZThn40_N9ivStepperD1Ev
_ZThn40_N9ivXSlider10disconnectEP12ivObservable
_ZThn40_N9ivXSliderD0Ev
_ZThn40_N9ivXSliderD1Ev
_ZThn40_N9ivYSlider10disconnectEP12ivObservable
_ZThn40_N9ivYSliderD0Ev
_ZThn40_N9ivYSliderD1Ev
_ZThn48_N12STEConditionD0Ev
_ZThn48_N12STEConditionD1Ev
_ZThn48_N14HocStateButtonD0Ev
_ZThn48_N14HocStateButtonD1Ev
_ZThn48_N14WatchConditionD0Ev
_ZThn48_N14WatchConditionD1Ev
_ZThn48_N16HocStateMenuItemD0Ev
_ZThn48_N16HocStateMenuItemD1Ev
_ZThn48_N8OcSlider6updateEP12ivObservable
_ZThn48_N8OcSliderD0Ev
_ZThn48_N8OcSliderD1Ev
_ZThn64_N11GraphVector6updateEP12ivObservable
_ZThn64_N11GraphVectorD0Ev
_ZThn64_N11GraphVectorD1Ev
_ZThn64_N12RangeVarPlot6updateEP12ivObservable
_ZThn64_N12RangeVarPlotD0Ev
_ZThn64_N12RangeVarPlotD1Ev
_ZThn64_N9GraphLine6updateEP12ivObservable
_ZThn64_N9GraphLineD0Ev
_ZThn64_N9GraphLineD1Ev
_ZThn88_N4ViewD0Ev
_ZThn88_N4ViewD1Ev
_ZThn88_N6XYViewD0Ev
_ZThn88_N6XYViewD1Ev
_ZThn88_N9ShapeViewD0Ev
_ZThn88_N9ShapeViewD1Ev
_ZThn8_N10RandomPlayD0Ev
_ZThn8_N10RandomPlayD1Ev
_ZThn8_N6Hinton8allocateEP8ivCanvasRK12ivAllocationR11ivExtension
_ZThn8_N6HintonD0Ev
_ZThn8_N6HintonD1Ev
_ZThn8_NK6Hinton4drawEP8ivCanvasRK12ivAllocation
_ZThn8_NK6Hinton7requestER13ivRequisition
_ZThn8_NK6Hinton9fast_drawEP8ivCanvasffb
_ZZN6neuron8scopmath5simeqIPdPiEEiiPS2_T_T0_E2np
_ZZN6neuron8scopmath5simeqIPdPiEEiiPS2_T_T0_E4perm
_ZZNSt10filesystem7__cxx114path10_S_convertIcEEDaPKT_S5_EN5_UCvtD0Ev
_ZZNSt10filesystem7__cxx114path10_S_convertIcEEDaPKT_S5_EN5_UCvtD1Ev
_ZZNSt8__detail18__to_chars_10_implIjEEvPcjT_E8__digits
_ZZNSt8__detail18__to_chars_10_implImEEvPcjT_E8__digits
_ZlsRSoRK16stack_ndim_datum
__add__
__ip__
__mltadd__
__smlt__
__sub__
__zadd__
__zconj__
__zero__
__zip__
__zmlt__
__zmltadd__
__zsub__
__zzero__
_apcount_reg_
_exp2syn_reg_
_expsyn_reg_
_feature_reg_
_hh_reg_
_in_prod
_intfire1_reg_
_intfire2_reg_
_intfire4_reg_
_m_copy
_m_exp
_m_pow
_netstim_reg_
_ninits
_nrnunit_use_legacy_
_oclmp_reg_
_passive_reg_
_pattern_reg_
_ppmark_reg_
_set_col
_set_row
_stim_reg_
_svclmp_reg_
_syn_reg_
_v_copy
_v_map
_v_norm1
_v_norm2
_v_norm_inf
_vclmp_reg_
_zQsolve
_zin_prod
_zm_copy
_zv_copy
_zv_map
_zv_norm1
_zv_norm2
_zv_norm_inf
always_false
arnoldi
arrow
bad_install_ok
bamech_
band2mat
bandaddI
bandalloc
bandallocpiv
bandcopy
bandfree
bandfreepiv
bandprint
bandscale
bandzero
bbcore_dparam_size
bbcore_write_version
bbs_poll_
bdLDLfactor
bdLDLsolve
bdLUfactor
bdLUsolve
bd_copy
bd_free
bd_get
bd_mv_mlt
bd_resize
bd_transp
bfin_vec
bifactor
bisvd
biv_finput
bkp_bump_col
bkp_interchange
bm_finput
bpx_finput
brushes
bump_col
bzm_finput
bzv_finput
capac_reg_
catch_FPE
ccc
cellgroups_
celsius
cg_num_iters
cg_set_maxiter
cgs
chase_col
chase_past
chk_col_access
chkpnt
clamp_resist
colors
comp_AAT
core2nrn_NetCon_event
core2nrn_PreSyn_flag
core2nrn_SelfEvent_event
core2nrn_SelfEvent_event_noweight
core2nrn_clear_queues
core2nrn_corepointer_mech
core2nrn_vecplay
core2nrn_vecplay_events
core2nrn_watch_activate
corenrn_direct
count_errs
crosshairs
cube
cvode_active_
d_save
datum2int
dclean
defaultCursor
denaddI
denalloc
denallocpiv
dencopy
denfree
denfreepiv
denprint
denscale
denzero
diam_change_cnt
diam_changed
display_xsize_
display_ysize_
dladdr
dlclose
dlerror
dlopen
dlsym
dt
eps_IntFire4
err_is_list_attached
err_list_attach
err_list_free
ev_err
extracell_reg_
f_members
fabs
fft
fin_double
fin_int
fy_or_n
gbfa
gbsl
gefa
gesl
get_col
get_global_dbl_item
get_global_int_item
get_row
getpid
givens
global_
gmres
hhtrcols
hhtrrows
hhtrvec
hhvec
hoc_ac_
hoc_access
hoc_built_in_symlist
hoc_cbufstr
hoc_color
hoc_cross_x_
hoc_cross_y_
hoc_ctp
hoc_default_dll_loaded_
hoc_do_equation
hoc_epsilon
hoc_errno_count
hoc_execerror_messages
hoc_fin
hoc_fout
hoc_frin
hoc_gargc
hoc_gargv
hoc_ictp
hoc_in_template
hoc_in_yyparse
hoc_indef
hoc_infile
hoc_interviews
hoc_intset
hoc_lineno
hoc_main1_inited_
hoc_max_builtin_class_id
hoc_nframe
hoc_nstack
hoc_objectdata
hoc_p_symlist
hoc_pc
hoc_pipeflag
hoc_plttext
hoc_print_first_instance
hoc_prog
hoc_prog_parse_recover
hoc_progbase
hoc_progname
hoc_progp
hoc_promptstr
hoc_return_type_code
hoc_returning
hoc_symlist
hoc_thisobject
hoc_tmpbuf
hoc_top_level_data
hoc_top_level_symlist
hoc_usegui
hoc_var_access
hoc_varpointer
hoc_xopen_file_
hoc_xopen_file_size_
hoc_zzdebug
hourglass
htablemax
htablemin
ib_IntFire4
ifft
ifin_vec
iiv_finput
im_finput
ipx_finput
iter_arnoldi
iter_arnoldi_iref
iter_cg
iter_cg1
iter_cgne
iter_cgs
iter_copy
iter_copy2
iter_dump
iter_free
iter_gen_nonsym
iter_gen_nonsym_posdef
iter_gen_sym
iter_get
iter_gmres
iter_lanczos
iter_lanczos2
iter_lsqr
iter_mgcr
iter_resize
iter_sparnoldi
iter_spcg
iter_spcgne
iter_spcgs
iter_spgmres
iter_splanczos
iter_splanczos2
iter_splsqr
iter_spmgcr
iter_std_info
iter_std_stop_crit
iv_add
iv_bind_enqueue_
iv_copy
iv_display_style_
iv_dump
iv_finput
iv_foutput
iv_free
iv_free_vars
iv_get
iv_get_vars
iv_min
iv_move
iv_resize
iv_resize_vars
iv_sort
iv_sub
iv_windows_exist
iv_zero
ivcleanup
izm_finput
izv_finput
keep_nseg_parm_
lanczos
lanczos2
lowerleft
lowerright
lsqr
ltextCursor
m_add
m_dump
m_exp
m_finput
m_foutput
m_free
m_free_vars
m_get
m_get_vars
m_ident
m_inverse
m_load
m_mlt
m_norm1
m_norm_frob
m_norm_inf
m_ones
m_poly
m_pow
m_rand
m_resize
m_resize_vars
m_save
m_sub
m_transp
m_version
m_zero
main
makeH
makeHQ
makeQ
makeR
mapinfo
mat2band
mem_attach_list
mem_bytes_list
mem_connect
mem_dump_list
mem_free_vars
mem_info_bytes
mem_info_file
mem_info_is_on
mem_info_numvar
mem_info_on
mem_is_list_attached
mem_numvar_list
mem_stat_dump
mem_stat_free_list
mem_stat_mark
mem_stat_reg_list
mem_stat_reg_vars
mem_stat_show_mark
memb_func
memb_list
memb_order_
members
mesch_m_move
mmtr_mlt
mrand
mrandlist
ms_mltadd
mtrm_mlt
mv_mlt
mv_mltadd
mv_move
mz_mltadd
n_memb_func
net_cvode_instance
neuron_home
neuron_home_dos
newstyle
noCursor
nrn2core_PreSyn_flag
nrn2core_patternstim
nrn2core_subworld_info
nrn2core_transfer_WATCH
nrn2core_transfer_tqueue
nrn_alloc_node_
nrn_allthread_handle
nrn_area_ri_count_
nrn_area_ri_nocount_
nrn_artcell_qindex_
nrn_bbcore_read_
nrn_bbcore_write_
nrn_binq_enqueue_error_handler
nrn_cannot_use_threads_and_mpi
nrn_child_sym
nrn_dblpntr2nrncore
nrn_dparam_ptr_end_
nrn_dparam_ptr_start_
nrn_err_dialog_active_
nrn_feenableexcept_
nrn_fornetcon_cnt_
nrn_fornetcon_index_
nrn_fornetcon_type_
nrn_get_partrans_setup_info
nrn_global_argc
nrn_global_argv
nrn_global_ncell
nrn_has_net_event_
nrn_has_net_event_cnt_
nrn_inpython_
nrn_inthread_
nrn_is_artificial_
nrn_is_python_extension
nrn_istty_
nrn_load_dll_called_
nrn_main_launch
nrn_matrix_cnt_
nrn_matrix_sym
nrn_mech_dll
nrn_mech_wtime_
nrn_mk_transfer_thread_data_
nrn_mpiabort_on_error_
nrn_multisplit_active_
nrn_multisplit_setup_
nrn_multisplit_solve_
nrn_netrec_state_adjust
nrn_nlayer_extracellular
nrn_nmodl_filename_
nrn_nmodl_text_
nrn_noauto_dlopen_nrnmech
nrn_nobanner_
nrn_node_ptr_change_cnt_
nrn_nonvint_block
nrn_nopython
nrn_nthread
nrn_parent_sym
nrn_parsing_pysec_
nrn_pnt_sec_for_need_
nrn_pnt_template_
nrn_point_prop_
nrn_praxis_ran_index
nrn_prop_dparam_size_
nrn_prop_param_size_
nrn_random_play
nrn_root_sym
nrn_sec_sym
nrn_shape_changed_
nrn_shape_update
nrn_shape_update_always
nrn_sparse_partrans
nrn_threads
nrn_trajectory_request_per_time_step_
nrn_tree_solve
nrn_trueparent_sym
nrn_try_catch_nest_depth
nrn_use_bin_queue_
nrn_use_compress_
nrn_use_daspk_
nrn_use_fast_imem
nrn_use_fifo_queue_
nrn_use_localgid_
nrn_use_selfqueue_
nrn_watch_allocate_
nrn_xopen_broadcast_
nrnignore
nrnmpi_abort
nrnmpi_ag_send_size_
nrnmpi_assert_opstep
nrnmpi_barrier
nrnmpi_bbsrecv
nrnmpi_bbssend
nrnmpi_bbssendrecv
nrnmpi_char_allgatherv
nrnmpi_char_alltoallv
nrnmpi_char_broadcast
nrnmpi_char_broadcast_world
nrnmpi_char_gatherv
nrnmpi_char_scatterv
nrnmpi_copy
nrnmpi_dbl_allgather
nrnmpi_dbl_allgatherv
nrnmpi_dbl_allgatherv_inplace
nrnmpi_dbl_allmin
nrnmpi_dbl_allreduce
nrnmpi_dbl_allreduce_vec
nrnmpi_dbl_alltoallv
nrnmpi_dbl_alltoallv_sparse
nrnmpi_dbl_broadcast
nrnmpi_enddata
nrnmpi_getid
nrnmpi_getkey
nrnmpi_i_capacity_
nrnmpi_init
nrnmpi_int_allgather
nrnmpi_int_allgather_inplace
nrnmpi_int_allgatherv
nrnmpi_int_allgatherv_inplace
nrnmpi_int_allmax
nrnmpi_int_alltoall
nrnmpi_int_alltoallv
nrnmpi_int_alltoallv_sparse
nrnmpi_int_broadcast
nrnmpi_int_gather
nrnmpi_int_gatherv
nrnmpi_int_scatter
nrnmpi_int_sum_reduce
nrnmpi_iprobe
nrnmpi_localgid_size_
nrnmpi_long_allgatherv
nrnmpi_long_allgatherv_inplace
nrnmpi_long_allreduce_vec
nrnmpi_long_alltoallv
nrnmpi_long_alltoallv_sparse
nrnmpi_longdbl_allreduce_vec
nrnmpi_mindelay
nrnmpi_multisend_comm
nrnmpi_multisend_conserve
nrnmpi_multisend_multisend
nrnmpi_multisend_single_advance
nrnmpi_myid
nrnmpi_myid_bbs
nrnmpi_myid_world
nrnmpi_newbuf
nrnmpi_nin_
nrnmpi_nout_
nrnmpi_numprocs
nrnmpi_numprocs_bbs
nrnmpi_numprocs_subworld
nrnmpi_numprocs_world
nrnmpi_ovfl_
nrnmpi_ovfl_capacity_
nrnmpi_pgvts_least
nrnmpi_pkbegin
nrnmpi_pkdouble
nrnmpi_pkint
nrnmpi_pkpickle
nrnmpi_pkstr
nrnmpi_pkvec
nrnmpi_postrecv_doubles
nrnmpi_probe
nrnmpi_recv_doubles
nrnmpi_ref
nrnmpi_rtcomp_time_
nrnmpi_send_doubles
nrnmpi_send_nspike_
nrnmpi_spike_exchange
nrnmpi_spike_exchange_compressed
nrnmpi_spike_initialize
nrnmpi_spikein_
nrnmpi_spikein_fixed_
nrnmpi_spikein_fixed_ovfl_
nrnmpi_spikeout_
nrnmpi_spikeout_fixed_
nrnmpi_splitcell_compute_
nrnmpi_splitcell_wait_
nrnmpi_step_wait_
nrnmpi_subworld_change_cnt
nrnmpi_subworld_id
nrnmpi_subworld_size
nrnmpi_terminate
nrnmpi_transfer_wait_
nrnmpi_unref
nrnmpi_upkbegin
nrnmpi_upkdouble
nrnmpi_upkint
nrnmpi_upkpickle
nrnmpi_upkstr
nrnmpi_upkvec
nrnmpi_use
nrnmpi_v_transfer_
nrnmpi_wait
nrnmpi_wrap_mpi_init
nrnmpi_wtime
nrnpy_call_python_with_section
nrnpy_callable_with_args
nrnpy_callpicklef
nrnpy_cmdtool
nrnpy_decref
nrnpy_func_call
nrnpy_get_pyobj
nrnpy_gui_helper3_
nrnpy_gui_helper3_str_
nrnpy_gui_helper_
nrnpy_guigetstr
nrnpy_guigetval
nrnpy_guisetval
nrnpy_hoccommand_exec
nrnpy_hoccommand_exec_strret
nrnpy_hpoasgn
nrnpy_nositeflag
nrnpy_nrncore_arg_p_
nrnpy_nrncore_enable_value_p_
nrnpy_nrncore_file_mode_value_p_
nrnpy_o2loc2_p_
nrnpy_o2loc_p_
nrnpy_o2sec_p_
nrnpy_ob_is_seg
nrnpy_object_to_double_
nrnpy_opaque_obj2pyobj_p_
nrnpy_p_ho2po
nrnpy_p_po2ho
nrnpy_pickle2po
nrnpy_po2pickle
nrnpy_praxis_efun
nrnpy_py2n_component
nrnpy_pyexe
nrnpy_pyhome
nrnpy_pyobj_sym_
nrnpy_pysame
nrnpy_pysec_cell_equals_p_
nrnpy_pysec_cell_p_
nrnpy_pysec_name_p_
nrnpy_reg_mech_p_
nrnpy_restore_savestate
nrnpy_restore_thread
nrnpy_rvp_rxd_to_callable
nrnpy_save_thread
nrnpy_sectionlist_helper_
nrnpy_seg_from_sec_x
nrnpy_set_pr_etal
nrnpy_site_problem_p
nrnpy_store_savestate
nrnpy_vec_as_numpy_helper_
nrnpy_vec_from_python_p_
nrnpy_vec_to_python_p_
nrnpympi_alltoall_type
nrnthread_all_spike_vectors_return
nrnthread_dat1
nrnthread_dat2_1
nrnthread_dat2_2
nrnthread_dat2_3
nrnthread_dat2_corepointer
nrnthread_dat2_corepointer_mech
nrnthread_dat2_mech
nrnthread_dat2_vecplay
nrnthread_dat2_vecplay_inst
nrnthread_get_trajectory_requests
nrnthread_group_ids
nrnthread_trajectory_return
nrnthread_trajectory_values
nrnthread_v_transfer_
nrnthread_vi_compute_
nrnthreads_all_weights_return
nrnthreads_type_return
objmembers
p_neosim_main
p_nrnpy_pyrun
p_nrnpython_finalize
p_nrnpython_start
part2_clean
passive0_reg_
patch_col
pccg
pinfo_
pnt_map
pnt_receive
pnt_receive_init
pnt_receive_size
point_process
pointsym
px_cols
px_copy
px_dump
px_finput
px_foutput
px_free
px_free_vars
px_get
px_get_vars
px_ident
px_inv
px_mlt
px_resize
px_resize_vars
px_rows
px_sign
px_transp
px_vec
px_zvec
pxinv_vec
pxinv_zvec
q_
q_hoc
randomPermutations
recalc_diam_count_
restart
rot_cols
rot_rows
rot_vec
rot_zvec
rtextCursor
scan_to
scdoub
schur
schur_evals
schur_vecs
secondorder
secorder
section_count
section_list
section_object_seen
set_err_flag
set_nonvint_block
set_scan
setformat
setzformat
skipjunk
sm_mlt
smrand
spBKPfactor
spBKPsolve
spCHfactor
spCHsolve
spCHsymb
spICHfactor
spILUfactor
spLUTsolve
spLUfactor
spLUsolve
sp_add
sp_arnoldi
sp_cgs
sp_col_access
sp_compact
sp_copy
sp_copy2
sp_diag_access
sp_dump
sp_finput
sp_foutput
sp_free
sp_free_vars
sp_get
sp_get_val
sp_get_vars
sp_lanczos
sp_lanczos2
sp_lsqr
sp_m2dense
sp_mltadd
sp_mv_mlt
sp_pccg
sp_resize
sp_resize_vars
sp_set_val
sp_smlt
sp_sub
sp_vm_mlt
sp_zero
spar_colst
spar_eqord
spar_neqn
spar_rhs
spar_rowst
spar_varord
sprow_add
sprow_copy
sprow_dump
sprow_foutput
sprow_free
sprow_get
sprow_idx
sprow_ip
sprow_merge
sprow_mltadd
sprow_resize
sprow_set_val
sprow_smlt
sprow_sqr
sprow_sub
sprow_xpd
sqr
square
state_discon_allowed_
state_discon_flag_
stoprun
structure_change_cnt
sub_mat
sub_vec
sv_mlt
svd
swap_cols
swap_rows
symmeig
t
t_members
taueps_IntFire4
text_orient
text_size
text_style
theApp
tree_changed
trieig
units_on_flag_
unord_get_idx
unord_get_val
unset_nonvint_block
upperleft
upperright
use_cachevec
use_mcell_ran4_
use_multisend_
use_python_interpreter
use_sparse13
usetable_hh
v_add
v_conv
v_count
v_dump
v_finput
v_foutput
v_free
v_free_vars
v_get
v_get_vars
v_lincomb
v_linlist
v_map
v_max
v_min
v_mltadd
v_move
v_ones
v_pconv
v_rand
v_resize
v_resize_vars
v_save
v_slash
v_sort
v_star
v_structure_change
v_sub
v_sum
v_zero
vdoub
vm_mlt
vm_mltadd
vm_move
weight
write_memb_mech_types_direct
yn_dflt
yychar
yylval
yynerrs
yystart
zDsolve
zHQunpack
zHfactor
zLAsolve
zLUAsolve
zLUcondest
zLUfactor
zLUsolve
zLsolve
zQRAsolve
zQRCPfactor
zQRCPsolve
zQRcondest
zQRfactor
zQRsolve
zUAmlt
zUAsolve
zUmlt
zUsolve
z_finput
z_foutput
z_save
zabs
zadd
zconj
zdiv
zero
zexp
zget_col
zget_row
zgivens
zhhtrcols
zhhtrrows
zhhtrvec
zhhvec
zinv
zlog
zm_add
zm_adjoint
zm_dump
zm_finput
zm_foutput
zm_free
zm_free_vars
zm_get
zm_get_vars
zm_inverse
zm_load
zm_mlt
zm_move
zm_norm1
zm_norm_frob
zm_norm_inf
zm_rand
zm_resize
zm_resize_vars
zm_save
zm_sub
zm_zero
zmake
zmakeQ
zmakeR
zmam_mlt
zmlt
zmma_mlt
zmv_mlt
zmv_mltadd
zmv_move
zneg
zrot_cols
zrot_rows
zschur
zset_col
zset_row
zsm_mlt
zsqrt
zsub
zswap_cols
zswap_rows
zv_add
zv_dump
zv_finput
zv_foutput
zv_free
zv_free_vars
zv_get
zv_get_vars
zv_lincomb
zv_linlist
zv_map
zv_mlt
zv_mltadd
zv_move
zv_rand
zv_resize
zv_resize_vars
zv_save
zv_slash
zv_star
zv_sub
zv_sum
zv_zero
zvm_mlt
zvm_mltadd
zvm_move
