EXPORTS
_Z14delete_sectionv
_Z16ivocmain_sessioniPPKcS1_i
_Z12mech_insert1P7Sectioni
_Z12new_sectionsP6ObjectP6SymbolPP8hoc_Itemi
_Z10node_exactP7Sectiond
_Z12nrnmpi_stubsv
_Z12ob2pntproc_0P6Object
_Z7secnameP7Section
_Z13section_unrefP7Section
_Z20simpleconnectsectionv
_Z15vector_capacityPv
_Z10vector_vecPv
_Z16nrn_rangepointerP7SectionP6Symbold
_Z15nrn_change_nsegP7Sectioni
_Z17nrn_length_changeP7Sectiond
_Z10nrn_popsecv
_Z11nrn_pushsecP7Section
_Z11nrn_sec_popv
_Z13hoc_call_funcP6Symboli
_Z16hoc_call_ob_procP6ObjectP6Symboli
_Z16hoc_call_objfuncP6SymboliP6Object
_Z29hoc_install_object_data_indexP6Symbol
_Z12hoc_l_deleteP8hoc_Item
_Z10hoc_lookupPKc
_Z11hoc_newobj1P6Symboli
_Z11hoc_obj_refP6Object
_Z13hoc_obj_unrefP6Object
_Z10hoc_objpopv
_Z6hoc_ocPKc
_Z14hoc_pop_objectv
_Z15hoc_push_objectP6Object
_Z11hoc_pushobjPP6Object
_Z10hoc_pushpxPd
_Z9hoc_pushsP6Symbol
_Z11hoc_pushstrPPc
_Z9hoc_pushxd
_Z9hoc_pxpopv
_Z7hoc_retv
_Z10hoc_strpopv
_Z16hoc_symbol_unitsP6SymbolPKc
_Z16hoc_table_lookupPKcP7Symlist
_Z14hoc_tobj_unrefPP6Object
_Z8hoc_xpopv
_Z15oc_save_hoc_oopPP6ObjectPP10ObjectdataPiPP7Symlist
_Z18oc_restore_hoc_oopPP6ObjectPP10ObjectdataPiPP7Symlist
_Z15oc_save_cabcodePiS_
_Z18oc_restore_cabcodePiS_
diam_changed
hoc_built_in_symlist
hoc_objectdata
hoc_top_level_data
hoc_top_level_symlist
nrn_is_python_extension
nrn_main_launch
nrn_nobanner_
nrn_try_catch_nest_depth
nrnpy_set_pr_etal
secondorder
section_list
_Z12oc_save_codePP4InstS1_RyPPN3nrn2oc5frameEPiS8_S1_S7_S2_PP7SymlistS1_S8_
_Z15oc_restore_codePP4InstS1_RyPPN3nrn2oc5frameEPiS8_S1_S7_S2_PP7SymlistS1_S8_
_Z18oc_save_input_infoPPKcPiS2_PP6_iobuf
_Z21oc_restore_input_infoPKciiP6_iobuf